TN:
SF:/home/matheus/Algoritmos/MDE/examples/CEC2006/CEC2006.cpp
FN:19,_ZN3mde7CEC20062F1C2Ev
FN:33,_ZN3mde7CEC20062F2C2Ev
FN:36,_ZN3mde7CEC20062F3C2Ev
FN:39,_ZN3mde7CEC20062F4C2Ev
FN:51,_ZN3mde7CEC20062F5C2Ev
FN:62,_ZN3mde7CEC20062F6C2Ev
FN:71,_ZN3mde7CEC20062F7C2Ev
FN:74,_ZN3mde7CEC20062F8C2Ev
FN:77,_ZN3mde7CEC20062F9C2Ev
FN:80,_ZN3mde7CEC20063F10C2Ev
FN:95,_ZN3mde7CEC20063F11C2Ev
FN:98,_ZN3mde7CEC20063F12C2Ev
FN:102,_ZN3mde7CEC20063F13C2Ev
FN:111,_ZN3mde7CEC20063F14C2Ev
FN:114,_ZN3mde7CEC20063F15C2Ev
FN:117,_ZN3mde7CEC20063F16C2Ev
FN:129,_ZN3mde7CEC20063F17C2Ev
FN:142,_ZN3mde7CEC20063F18C2Ev
FN:156,_ZN3mde7CEC20063F19C2Ev
FN:159,_ZN3mde7CEC20063F20C2Ev
FN:162,_ZN3mde7CEC20063F21C2Ev
FN:176,_ZN3mde7CEC20063F22C2Ev
FN:195,_ZN3mde7CEC20063F23C2Ev
FN:212,_ZN3mde7CEC20063F24C2Ev
FNDA:1,_ZN3mde7CEC20063F18C2Ev
FNDA:1,_ZN3mde7CEC20063F16C2Ev
FNDA:1,_ZN3mde7CEC20062F7C2Ev
FNDA:1,_ZN3mde7CEC20063F12C2Ev
FNDA:1,_ZN3mde7CEC20063F22C2Ev
FNDA:1,_ZN3mde7CEC20063F15C2Ev
FNDA:1,_ZN3mde7CEC20063F20C2Ev
FNDA:1,_ZN3mde7CEC20063F23C2Ev
FNDA:1,_ZN3mde7CEC20063F19C2Ev
FNDA:1,_ZN3mde7CEC20063F24C2Ev
FNDA:1,_ZN3mde7CEC20063F10C2Ev
FNDA:1,_ZN3mde7CEC20063F17C2Ev
FNDA:1,_ZN3mde7CEC20062F3C2Ev
FNDA:1,_ZN3mde7CEC20063F13C2Ev
FNDA:1,_ZN3mde7CEC20062F5C2Ev
FNDA:1,_ZN3mde7CEC20062F9C2Ev
FNDA:1,_ZN3mde7CEC20063F11C2Ev
FNDA:1,_ZN3mde7CEC20062F6C2Ev
FNDA:1,_ZN3mde7CEC20062F2C2Ev
FNDA:1,_ZN3mde7CEC20062F4C2Ev
FNDA:1,_ZN3mde7CEC20062F1C2Ev
FNDA:1,_ZN3mde7CEC20063F21C2Ev
FNDA:1,_ZN3mde7CEC20062F8C2Ev
FNDA:1,_ZN3mde7CEC20063F14C2Ev
FNF:24
FNH:24
DA:19,1
DA:21,1
DA:23,10
DA:24,9
DA:26,4
DA:27,3
DA:29,1
DA:30,1
DA:33,1
DA:36,1
DA:39,1
DA:41,1
DA:43,1
DA:44,1
DA:46,4
DA:47,3
DA:48,1
DA:51,1
DA:53,1
DA:55,1
DA:56,1
DA:57,1
DA:58,1
DA:59,1
DA:62,1
DA:64,1
DA:66,1
DA:67,1
DA:68,1
DA:71,1
DA:74,1
DA:77,1
DA:80,1
DA:82,1
DA:84,1
DA:86,3
DA:87,2
DA:89,6
DA:90,5
DA:92,1
DA:95,1
DA:98,1
DA:102,1
DA:104,1
DA:106,1
DA:107,1
DA:108,1
DA:111,1
DA:114,1
DA:117,1
DA:119,1
DA:121,1
DA:122,1
DA:123,1
DA:124,1
DA:125,1
DA:126,1
DA:129,1
DA:131,1
DA:133,1
DA:134,1
DA:135,1
DA:136,1
DA:137,1
DA:138,1
DA:139,1
DA:142,1
DA:146,1
DA:148,9
DA:149,8
DA:151,1
DA:152,1
DA:156,1
DA:159,1
DA:162,1
DA:164,1
DA:166,1
DA:167,1
DA:168,1
DA:169,1
DA:170,1
DA:171,1
DA:172,1
DA:173,1
DA:176,1
DA:178,1
DA:180,1
DA:181,1
DA:182,1
DA:183,1
DA:184,1
DA:185,1
DA:186,1
DA:187,1
DA:188,1
DA:189,1
DA:190,1
DA:191,1
DA:192,1
DA:195,1
DA:197,1
DA:199,1
DA:200,1
DA:202,1
DA:203,1
DA:205,1
DA:206,1
DA:208,1
DA:209,1
DA:212,1
DA:214,1
DA:216,1
DA:217,1
DA:218,1
LF:114
LH:114
end_of_record
TN:
SF:/home/matheus/Algoritmos/MDE/examples/CEC2006/CEC2006_C_Functions.cpp
FN:24,_ZN3mde7CEC20063g01EPdS1_S1_S1_i
FN:44,_ZN3mde7CEC20063g02EPdS1_S1_S1_i
FN:70,_ZN3mde7CEC20063g03EPdS1_S1_S1_i
FN:89,_ZN3mde7CEC20063g04EPdS1_S1_S1_i
FN:102,_ZN3mde7CEC20063g05EPdS1_S1_S1_i
FN:114,_ZN3mde7CEC20063g06EPdS1_S1_S1_i
FN:123,_ZN3mde7CEC20063g07EPdS1_S1_S1_i
FN:143,_ZN3mde7CEC20063g08EPdS1_S1_S1_i
FN:156,_ZN3mde7CEC20063g09EPdS1_S1_S1_i
FN:171,_ZN3mde7CEC20063g10EPdS1_S1_S1_i
FN:184,_ZN3mde7CEC20063g11EPdS1_S1_S1_i
FN:192,_ZN3mde7CEC20063g12EPdS1_S1_S1_i
FN:216,_ZN3mde7CEC20063g13EPdS1_S1_S1_i
FN:226,_ZN3mde7CEC20063g14EPdS1_S1_S1_i
FN:244,_ZN3mde7CEC20063g15EPdS1_S1_S1_i
FN:253,_ZN3mde7CEC20063g16EPdS1_S1_S1_i
FN:343,_ZN3mde7CEC20063g17EPdS1_S1_S1_i
FN:400,_ZN3mde7CEC20063g18EPdS1_S1_S1_i
FN:421,_ZN3mde7CEC20063g19EPdS1_S1_S1_i
FN:477,_ZN3mde7CEC20063g20EPdS1_S1_S1_i
FN:519,_ZN3mde7CEC20063g21EPdS1_S1_S1_i
FN:534,_ZN3mde7CEC20063g22EPdS1_S1_S1_i
FN:563,_ZN3mde7CEC20063g23EPdS1_S1_S1_i
FN:578,_ZN3mde7CEC20063g24EPdS1_S1_S1_i
FNDA:24450,_ZN3mde7CEC20063g06EPdS1_S1_S1_i
FNDA:57460,_ZN3mde7CEC20063g09EPdS1_S1_S1_i
FNDA:266175,_ZN3mde7CEC20063g03EPdS1_S1_S1_i
FNDA:7115,_ZN3mde7CEC20063g12EPdS1_S1_S1_i
FNDA:53310,_ZN3mde7CEC20063g05EPdS1_S1_S1_i
FNDA:41765,_ZN3mde7CEC20063g22EPdS1_S1_S1_i
FNDA:1304650,_ZN3mde7CEC20063g07EPdS1_S1_S1_i
FNDA:16200,_ZN3mde7CEC20063g11EPdS1_S1_S1_i
FNDA:1131485,_ZN3mde7CEC20063g10EPdS1_S1_S1_i
FNDA:1999920,_ZN3mde7CEC20063g19EPdS1_S1_S1_i
FNDA:8380,_ZN3mde7CEC20063g24EPdS1_S1_S1_i
FNDA:1999920,_ZN3mde7CEC20063g02EPdS1_S1_S1_i
FNDA:4100,_ZN3mde7CEC20063g08EPdS1_S1_S1_i
FNDA:69030,_ZN3mde7CEC20063g01EPdS1_S1_S1_i
FNDA:795895,_ZN3mde7CEC20063g21EPdS1_S1_S1_i
FNDA:1784575,_ZN3mde7CEC20063g23EPdS1_S1_S1_i
FNDA:1128285,_ZN3mde7CEC20063g13EPdS1_S1_S1_i
FNDA:1308885,_ZN3mde7CEC20063g17EPdS1_S1_S1_i
FNDA:1999920,_ZN3mde7CEC20063g20EPdS1_S1_S1_i
FNDA:1999920,_ZN3mde7CEC20063g14EPdS1_S1_S1_i
FNDA:100640,_ZN3mde7CEC20063g15EPdS1_S1_S1_i
FNDA:37605,_ZN3mde7CEC20063g04EPdS1_S1_S1_i
FNDA:590960,_ZN3mde7CEC20063g18EPdS1_S1_S1_i
FNDA:26960,_ZN3mde7CEC20063g16EPdS1_S1_S1_i
FNF:24
FNH:24
DA:24,69030
DA:29,69030
DA:30,690300
DA:31,621270
DA:33,69030
DA:34,69030
DA:35,69030
DA:36,69030
DA:37,69030
DA:38,69030
DA:39,69030
DA:40,69030
DA:41,69030
DA:42,69030
DA:44,1999920
DA:50,1999920
DA:51,1999920
DA:52,1999920
DA:53,1999920
DA:54,1999920
DA:55,41998320
DA:57,39998400
DA:58,39998400
DA:59,39998400
DA:60,39998400
DA:61,39998400
DA:63,1999920
DA:64,1999920
DA:66,1999920
DA:67,1999920
DA:68,1999920
DA:70,266175
DA:73,266175
DA:76,266175
DA:77,266175
DA:78,2927925
DA:80,2661750
DA:81,2661750
DA:83,266175
DA:84,266175
DA:86,266175
DA:87,266175
DA:89,37605
DA:92,37605
DA:94,37605
DA:95,37605
DA:96,37605
DA:97,37605
DA:98,37605
DA:99,37605
DA:100,37605
DA:102,53310
DA:105,53310
DA:107,53310
DA:108,53310
DA:109,53310
DA:110,53310
DA:111,53310
DA:112,53310
DA:114,24450
DA:117,24450
DA:119,24450
DA:120,24450
DA:121,24450
DA:123,1304650
DA:126,1304650
DA:127,2609300
DA:128,1304650
DA:129,3913950
DA:130,1304650
DA:131,2609300
DA:133,1304650
DA:134,1304650
DA:135,1304650
DA:136,1304650
DA:137,1304650
DA:138,1304650
DA:139,1304650
DA:140,1304650
DA:141,1304650
DA:143,4100
DA:146,4100
DA:149,4100
DA:150,4100
DA:152,4100
DA:153,4100
DA:154,4100
DA:156,57460
DA:159,57460
DA:160,57460
DA:161,57460
DA:162,57460
DA:163,114920
DA:165,57460
DA:166,57460
DA:167,57460
DA:168,57460
DA:169,57460
DA:171,1131485
DA:174,1131485
DA:176,1131485
DA:177,1131485
DA:178,1131485
DA:179,1131485
DA:180,1131485
DA:181,1131485
DA:182,1131485
DA:184,16200
DA:187,16200
DA:189,16200
DA:190,16200
DA:192,7115
DA:198,7115
DA:199,7115
DA:201,7115
DA:202,71150
DA:204,640350
DA:206,5763150
DA:208,5186835
DA:209,5186835
DA:210,215351
DA:214,7115
DA:216,1128285
DA:219,1128285
DA:221,1128285
DA:222,1128285
DA:223,1128285
DA:224,1128285
DA:226,1999920
DA:229,1999920
DA:230,1999920
DA:233,21999120
DA:234,19999200
DA:235,21999120
DA:236,19999200
DA:237,1999920
DA:239,1999920
DA:240,1999920
DA:241,1999920
DA:242,1999920
DA:244,100640
DA:247,100640
DA:249,100640
DA:250,100640
DA:251,100640
DA:253,26960
DA:258,26960
DA:259,26960
DA:260,26960
DA:261,26960
DA:262,26960
DA:264,26960
DA:265,26960
DA:266,26960
DA:267,26960
DA:268,26960
DA:269,26960
DA:270,26960
DA:271,26960
DA:272,26960
DA:273,26960
DA:274,26960
DA:275,26960
DA:276,26960
DA:277,26960
DA:278,26960
DA:279,26960
DA:280,26960
DA:281,26960
DA:282,26960
DA:283,26960
DA:284,26960
DA:285,26960
DA:286,26960
DA:287,26960
DA:288,26960
DA:289,26960
DA:290,26960
DA:291,26960
DA:292,26960
DA:293,26960
DA:294,26960
DA:295,26960
DA:296,26960
DA:297,26960
DA:300,26960
DA:301,26960
DA:303,26960
DA:304,26960
DA:305,26960
DA:306,26960
DA:307,26960
DA:308,26960
DA:309,26960
DA:310,26960
DA:311,26960
DA:312,26960
DA:313,26960
DA:314,26960
DA:315,26960
DA:316,26960
DA:317,26960
DA:318,26960
DA:319,26960
DA:320,26960
DA:321,26960
DA:322,26960
DA:323,26960
DA:324,26960
DA:325,26960
DA:326,26960
DA:327,26960
DA:328,26960
DA:329,26960
DA:330,26960
DA:331,26960
DA:332,26960
DA:333,26960
DA:334,26960
DA:335,26960
DA:336,26960
DA:337,26960
DA:338,26960
DA:339,26960
DA:340,26960
DA:341,26960
DA:343,1308885
DA:348,1308885
DA:349,1308885
DA:350,1308885
DA:351,1308885
DA:352,1308885
DA:353,1308885
DA:355,1308885
DA:356,1308885
DA:357,1308885
DA:358,1308885
DA:362,1308885
DA:364,1308444
DA:368,441
DA:370,441
DA:373,1308885
DA:375,273853
DA:379,1035032
DA:381,1027112
DA:385,7920
DA:387,7920
DA:391,1308885
DA:394,1308885
DA:395,1308885
DA:396,1308885
DA:397,1308885
DA:398,1308885
DA:400,590960
DA:403,590960
DA:404,590960
DA:406,590960
DA:407,590960
DA:408,590960
DA:409,590960
DA:410,590960
DA:411,590960
DA:412,590960
DA:413,590960
DA:414,590960
DA:415,590960
DA:416,590960
DA:417,590960
DA:418,590960
DA:419,590960
DA:421,1999920
DA:424,1999920
DA:435,1999920
DA:436,1999920
DA:442,1999920
DA:443,1999920
DA:444,1999920
DA:447,21999120
DA:449,19999200
DA:451,11999520
DA:453,59997600
DA:455,49998000
DA:458,11999520
DA:460,9999600
DA:462,1999920
DA:463,1999920
DA:465,11999520
DA:467,9999600
DA:468,59997600
DA:469,49998000
DA:470,9999600
DA:471,109995600
DA:472,99996000
DA:473,9999600
DA:475,1999920
DA:477,1999920
DA:481,1999920
DA:482,1999920
DA:483,1999920
DA:484,1999920
DA:485,1999920
DA:488,1999920
DA:489,49998000
DA:491,47998080
DA:494,1999920
DA:495,25998960
DA:496,23999040
DA:497,1999920
DA:498,25998960
DA:499,23999040
DA:500,25998960
DA:501,23999040
DA:502,1999920
DA:503,49998000
DA:504,47998080
DA:505,1999920
DA:506,1999920
DA:507,25998960
DA:508,23999040
DA:509,1999920
DA:510,25998960
DA:511,23999040
DA:512,1999920
DA:513,7999680
DA:514,5999760
DA:515,7999680
DA:516,5999760
DA:517,1999920
DA:519,795895
DA:524,795895
DA:526,795895
DA:527,795895
DA:528,795895
DA:529,795895
DA:530,795895
DA:531,795895
DA:532,795895
DA:534,41765
DA:539,41765
DA:541,41765
DA:542,41765
DA:543,41765
DA:544,41765
DA:545,41765
DA:546,41765
DA:547,41765
DA:548,41765
DA:549,41765
DA:550,41765
DA:551,41765
DA:552,41765
DA:553,41765
DA:554,41765
DA:555,41765
DA:556,41765
DA:557,41765
DA:558,41765
DA:559,41765
DA:560,41765
DA:561,41765
DA:563,1784575
DA:568,1784575
DA:570,1784575
DA:571,1784575
DA:572,1784575
DA:573,1784575
DA:574,1784575
DA:575,1784575
DA:576,1784575
DA:578,8380
DA:581,8380
DA:583,8380
DA:584,8380
DA:585,8380
LF:374
LH:374
end_of_record
TN:
SF:/home/matheus/Algoritmos/MDE/examples/CEC2006/CEC_Function.h
FN:37,_ZN3mde12CEC_FunctionILi9ELi0ELi13EEC2EPFvPdS2_S2_S2_iE
FN:37,_ZN3mde12CEC_FunctionILi9ELi4ELi2EEC2EPFvPdS2_S2_S2_iE
FN:37,_ZN3mde12CEC_FunctionILi22ELi4ELi2EEC2EPFvPdS2_S2_S2_iE
FN:37,_ZN3mde12CEC_FunctionILi5ELi3ELi0EEC2EPFvPdS2_S2_S2_iE
FN:37,_ZN3mde12CEC_FunctionILi13ELi0ELi9EEC2EPFvPdS2_S2_S2_iE
FN:37,_ZN3mde12CEC_FunctionILi8ELi0ELi6EEC2EPFvPdS2_S2_S2_iE
FN:37,_ZN3mde12CEC_FunctionILi5ELi0ELi38EEC2EPFvPdS2_S2_S2_iE
FN:37,_ZN3mde12CEC_FunctionILi7ELi5ELi1EEC2EPFvPdS2_S2_S2_iE
FN:37,_ZN3mde12CEC_FunctionILi4ELi3ELi2EEC2EPFvPdS2_S2_S2_iE
FN:37,_ZN3mde12CEC_FunctionILi6ELi4ELi0EEC2EPFvPdS2_S2_S2_iE
FN:37,_ZN3mde12CEC_FunctionILi2ELi0ELi2EEC2EPFvPdS2_S2_S2_iE
FN:37,_ZN3mde12CEC_FunctionILi5ELi0ELi6EEC2EPFvPdS2_S2_S2_iE
FN:39,_ZN3mde12CEC_FunctionILi3ELi2ELi0EEC2EPFvPdS2_S2_S2_iEddd
FN:39,_ZN3mde12CEC_FunctionILi3ELi0ELi1EEC2EPFvPdS2_S2_S2_iEddd
FN:39,_ZN3mde12CEC_FunctionILi10ELi3ELi0EEC2EPFvPdS2_S2_S2_iEddd
FN:39,_ZN3mde12CEC_FunctionILi7ELi0ELi4EEC2EPFvPdS2_S2_S2_iEddd
FN:39,_ZN3mde12CEC_FunctionILi2ELi1ELi0EEC2EPFvPdS2_S2_S2_iEddd
FN:39,_ZN3mde12CEC_FunctionILi20ELi0ELi2EEC2EPFvPdS2_S2_S2_iEddd
FN:39,_ZN3mde12CEC_FunctionILi10ELi1ELi0EEC2EPFvPdS2_S2_S2_iEddd
FN:39,_ZN3mde12CEC_FunctionILi24ELi12ELi6EEC2EPFvPdS2_S2_S2_iEddd
FN:39,_ZN3mde12CEC_FunctionILi2ELi0ELi2EEC2EPFvPdS2_S2_S2_iEddd
FN:39,_ZN3mde12CEC_FunctionILi10ELi0ELi8EEC2EPFvPdS2_S2_S2_iEddd
FN:39,_ZN3mde12CEC_FunctionILi15ELi0ELi5EEC2EPFvPdS2_S2_S2_iEddd
FN:52,_ZN3mde12CEC_FunctionILi10ELi3ELi0EEclERKNS_4help6VectorILm10EEE
FN:52,_ZN3mde12CEC_FunctionILi20ELi0ELi2EEclERKNS_4help6VectorILm20EEE
FN:52,_ZN3mde12CEC_FunctionILi4ELi3ELi2EEclERKNS_4help6VectorILm4EEE
FN:52,_ZN3mde12CEC_FunctionILi10ELi0ELi8EEclERKNS_4help6VectorILm10EEE
FN:52,_ZN3mde12CEC_FunctionILi8ELi0ELi6EEclERKNS_4help6VectorILm8EEE
FN:52,_ZN3mde12CEC_FunctionILi7ELi5ELi1EEclERKNS_4help6VectorILm7EEE
FN:52,_ZN3mde12CEC_FunctionILi15ELi0ELi5EEclERKNS_4help6VectorILm15EEE
FN:52,_ZN3mde12CEC_FunctionILi2ELi1ELi0EEclERKNS_4help6VectorILm2EEE
FN:52,_ZN3mde12CEC_FunctionILi2ELi0ELi2EEclERKNS_4help6VectorILm2EEE
FN:52,_ZN3mde12CEC_FunctionILi3ELi0ELi1EEclERKNS_4help6VectorILm3EEE
FN:52,_ZN3mde12CEC_FunctionILi5ELi0ELi38EEclERKNS_4help6VectorILm5EEE
FN:52,_ZN3mde12CEC_FunctionILi5ELi3ELi0EEclERKNS_4help6VectorILm5EEE
FN:52,_ZN3mde12CEC_FunctionILi22ELi4ELi2EEclERKNS_4help6VectorILm22EEE
FN:52,_ZN3mde12CEC_FunctionILi3ELi2ELi0EEclERKNS_4help6VectorILm3EEE
FN:52,_ZN3mde12CEC_FunctionILi9ELi0ELi13EEclERKNS_4help6VectorILm9EEE
FN:52,_ZN3mde12CEC_FunctionILi9ELi4ELi2EEclERKNS_4help6VectorILm9EEE
FN:52,_ZN3mde12CEC_FunctionILi13ELi0ELi9EEclERKNS_4help6VectorILm13EEE
FN:52,_ZN3mde12CEC_FunctionILi10ELi1ELi0EEclERKNS_4help6VectorILm10EEE
FN:52,_ZN3mde12CEC_FunctionILi24ELi12ELi6EEclERKNS_4help6VectorILm24EEE
FN:52,_ZN3mde12CEC_FunctionILi6ELi4ELi0EEclERKNS_4help6VectorILm6EEE
FN:52,_ZN3mde12CEC_FunctionILi7ELi0ELi4EEclERKNS_4help6VectorILm7EEE
FN:52,_ZN3mde12CEC_FunctionILi5ELi0ELi6EEclERKNS_4help6VectorILm5EEE
FN:70,_ZN3mde12CEC_FunctionILi5ELi3ELi0EE10equalitiesERKNS_4help6VectorILm5EEE
FN:70,_ZN3mde12CEC_FunctionILi6ELi4ELi0EE10equalitiesERKNS_4help6VectorILm6EEE
FN:70,_ZN3mde12CEC_FunctionILi13ELi0ELi9EE10equalitiesERKNS_4help6VectorILm13EEE
FN:70,_ZN3mde12CEC_FunctionILi4ELi3ELi2EE10equalitiesERKNS_4help6VectorILm4EEE
FN:70,_ZN3mde12CEC_FunctionILi7ELi5ELi1EE10equalitiesERKNS_4help6VectorILm7EEE
FN:70,_ZN3mde12CEC_FunctionILi15ELi0ELi5EE10equalitiesERKNS_4help6VectorILm15EEE
FN:70,_ZN3mde12CEC_FunctionILi7ELi0ELi4EE10equalitiesERKNS_4help6VectorILm7EEE
FN:70,_ZN3mde12CEC_FunctionILi10ELi3ELi0EE10equalitiesERKNS_4help6VectorILm10EEE
FN:70,_ZN3mde12CEC_FunctionILi3ELi0ELi1EE10equalitiesERKNS_4help6VectorILm3EEE
FN:70,_ZN3mde12CEC_FunctionILi20ELi0ELi2EE10equalitiesERKNS_4help6VectorILm20EEE
FN:70,_ZN3mde12CEC_FunctionILi5ELi0ELi38EE10equalitiesERKNS_4help6VectorILm5EEE
FN:70,_ZN3mde12CEC_FunctionILi9ELi4ELi2EE10equalitiesERKNS_4help6VectorILm9EEE
FN:70,_ZN3mde12CEC_FunctionILi5ELi0ELi6EE10equalitiesERKNS_4help6VectorILm5EEE
FN:70,_ZN3mde12CEC_FunctionILi10ELi0ELi8EE10equalitiesERKNS_4help6VectorILm10EEE
FN:70,_ZN3mde12CEC_FunctionILi9ELi0ELi13EE10equalitiesERKNS_4help6VectorILm9EEE
FN:70,_ZN3mde12CEC_FunctionILi3ELi2ELi0EE10equalitiesERKNS_4help6VectorILm3EEE
FN:70,_ZN3mde12CEC_FunctionILi24ELi12ELi6EE10equalitiesERKNS_4help6VectorILm24EEE
FN:70,_ZN3mde12CEC_FunctionILi22ELi4ELi2EE10equalitiesERKNS_4help6VectorILm22EEE
FN:70,_ZN3mde12CEC_FunctionILi10ELi1ELi0EE10equalitiesERKNS_4help6VectorILm10EEE
FN:70,_ZN3mde12CEC_FunctionILi8ELi0ELi6EE10equalitiesERKNS_4help6VectorILm8EEE
FN:70,_ZN3mde12CEC_FunctionILi2ELi0ELi2EE10equalitiesERKNS_4help6VectorILm2EEE
FN:70,_ZN3mde12CEC_FunctionILi2ELi1ELi0EE10equalitiesERKNS_4help6VectorILm2EEE
FN:75,_ZN3mde12CEC_FunctionILi20ELi0ELi2EE12inequalitiesERKNS_4help6VectorILm20EEE
FN:75,_ZN3mde12CEC_FunctionILi10ELi0ELi8EE12inequalitiesERKNS_4help6VectorILm10EEE
FN:75,_ZN3mde12CEC_FunctionILi22ELi4ELi2EE12inequalitiesERKNS_4help6VectorILm22EEE
FN:75,_ZN3mde12CEC_FunctionILi8ELi0ELi6EE12inequalitiesERKNS_4help6VectorILm8EEE
FN:75,_ZN3mde12CEC_FunctionILi4ELi3ELi2EE12inequalitiesERKNS_4help6VectorILm4EEE
FN:75,_ZN3mde12CEC_FunctionILi2ELi0ELi2EE12inequalitiesERKNS_4help6VectorILm2EEE
FN:75,_ZN3mde12CEC_FunctionILi15ELi0ELi5EE12inequalitiesERKNS_4help6VectorILm15EEE
FN:75,_ZN3mde12CEC_FunctionILi10ELi1ELi0EE12inequalitiesERKNS_4help6VectorILm10EEE
FN:75,_ZN3mde12CEC_FunctionILi10ELi3ELi0EE12inequalitiesERKNS_4help6VectorILm10EEE
FN:75,_ZN3mde12CEC_FunctionILi5ELi3ELi0EE12inequalitiesERKNS_4help6VectorILm5EEE
FN:75,_ZN3mde12CEC_FunctionILi6ELi4ELi0EE12inequalitiesERKNS_4help6VectorILm6EEE
FN:75,_ZN3mde12CEC_FunctionILi24ELi12ELi6EE12inequalitiesERKNS_4help6VectorILm24EEE
FN:75,_ZN3mde12CEC_FunctionILi13ELi0ELi9EE12inequalitiesERKNS_4help6VectorILm13EEE
FN:75,_ZN3mde12CEC_FunctionILi7ELi0ELi4EE12inequalitiesERKNS_4help6VectorILm7EEE
FN:75,_ZN3mde12CEC_FunctionILi2ELi1ELi0EE12inequalitiesERKNS_4help6VectorILm2EEE
FN:75,_ZN3mde12CEC_FunctionILi9ELi4ELi2EE12inequalitiesERKNS_4help6VectorILm9EEE
FN:75,_ZN3mde12CEC_FunctionILi7ELi5ELi1EE12inequalitiesERKNS_4help6VectorILm7EEE
FN:75,_ZN3mde12CEC_FunctionILi5ELi0ELi38EE12inequalitiesERKNS_4help6VectorILm5EEE
FN:75,_ZN3mde12CEC_FunctionILi5ELi0ELi6EE12inequalitiesERKNS_4help6VectorILm5EEE
FN:75,_ZN3mde12CEC_FunctionILi9ELi0ELi13EE12inequalitiesERKNS_4help6VectorILm9EEE
FN:75,_ZN3mde12CEC_FunctionILi3ELi2ELi0EE12inequalitiesERKNS_4help6VectorILm3EEE
FN:75,_ZN3mde12CEC_FunctionILi3ELi0ELi1EE12inequalitiesERKNS_4help6VectorILm3EEE
FNDA:499980,_ZN3mde12CEC_FunctionILi20ELi0ELi2EE12inequalitiesERKNS_4help6VectorILm20EEE
FNDA:499980,_ZN3mde12CEC_FunctionILi10ELi3ELi0EEclERKNS_4help6VectorILm10EEE
FNDA:499980,_ZN3mde12CEC_FunctionILi20ELi0ELi2EEclERKNS_4help6VectorILm20EEE
FNDA:1,_ZN3mde12CEC_FunctionILi3ELi2ELi0EEC2EPFvPdS2_S2_S2_iEddd
FNDA:499980,_ZN3mde12CEC_FunctionILi5ELi3ELi0EE10equalitiesERKNS_4help6VectorILm5EEE
FNDA:1,_ZN3mde12CEC_FunctionILi9ELi0ELi13EEC2EPFvPdS2_S2_S2_iE
FNDA:1,_ZN3mde12CEC_FunctionILi3ELi0ELi1EEC2EPFvPdS2_S2_S2_iEddd
FNDA:12320,_ZN3mde12CEC_FunctionILi4ELi3ELi2EEclERKNS_4help6VectorILm4EEE
FNDA:12320,_ZN3mde12CEC_FunctionILi4ELi3ELi2EE10equalitiesERKNS_4help6VectorILm4EEE
FNDA:16115,_ZN3mde12CEC_FunctionILi13ELi0ELi9EE10equalitiesERKNS_4help6VectorILm13EEE
FNDA:158600,_ZN3mde12CEC_FunctionILi6ELi4ELi0EE10equalitiesERKNS_4help6VectorILm6EEE
FNDA:151390,_ZN3mde12CEC_FunctionILi8ELi0ELi6EEclERKNS_4help6VectorILm8EEE
FNDA:499980,_ZN3mde12CEC_FunctionILi10ELi3ELi0EE10equalitiesERKNS_4help6VectorILm10EEE
FNDA:1,_ZN3mde12CEC_FunctionILi22ELi4ELi2EEC2EPFvPdS2_S2_S2_iE
FNDA:1,_ZN3mde12CEC_FunctionILi10ELi3ELi0EEC2EPFvPdS2_S2_S2_iEddd
FNDA:9945,_ZN3mde12CEC_FunctionILi7ELi0ELi4EE10equalitiesERKNS_4help6VectorILm7EEE
FNDA:499980,_ZN3mde12CEC_FunctionILi15ELi0ELi5EE10equalitiesERKNS_4help6VectorILm15EEE
FNDA:197630,_ZN3mde12CEC_FunctionILi10ELi0ELi8EEclERKNS_4help6VectorILm10EEE
FNDA:1,_ZN3mde12CEC_FunctionILi9ELi4ELi2EEC2EPFvPdS2_S2_S2_iE
FNDA:499980,_ZN3mde12CEC_FunctionILi7ELi5ELi1EE10equalitiesERKNS_4help6VectorILm7EEE
FNDA:1,_ZN3mde12CEC_FunctionILi7ELi0ELi4EEC2EPFvPdS2_S2_S2_iEddd
FNDA:17365,_ZN3mde12CEC_FunctionILi22ELi4ELi2EE12inequalitiesERKNS_4help6VectorILm22EEE
FNDA:151390,_ZN3mde12CEC_FunctionILi8ELi0ELi6EE12inequalitiesERKNS_4help6VectorILm8EEE
FNDA:1425,_ZN3mde12CEC_FunctionILi3ELi0ELi1EE10equalitiesERKNS_4help6VectorILm3EEE
FNDA:197630,_ZN3mde12CEC_FunctionILi10ELi0ELi8EE12inequalitiesERKNS_4help6VectorILm10EEE
FNDA:499980,_ZN3mde12CEC_FunctionILi7ELi5ELi1EEclERKNS_4help6VectorILm7EEE
FNDA:1,_ZN3mde12CEC_FunctionILi5ELi3ELi0EEC2EPFvPdS2_S2_S2_iE
FNDA:6505,_ZN3mde12CEC_FunctionILi5ELi0ELi38EE10equalitiesERKNS_4help6VectorILm5EEE
FNDA:1,_ZN3mde12CEC_FunctionILi2ELi1ELi0EEC2EPFvPdS2_S2_S2_iEddd
FNDA:12320,_ZN3mde12CEC_FunctionILi4ELi3ELi2EE12inequalitiesERKNS_4help6VectorILm4EEE
FNDA:499980,_ZN3mde12CEC_FunctionILi20ELi0ELi2EE10equalitiesERKNS_4help6VectorILm20EEE
FNDA:284635,_ZN3mde12CEC_FunctionILi9ELi4ELi2EE10equalitiesERKNS_4help6VectorILm9EEE
FNDA:499980,_ZN3mde12CEC_FunctionILi15ELi0ELi5EEclERKNS_4help6VectorILm15EEE
FNDA:12390,_ZN3mde12CEC_FunctionILi2ELi0ELi2EEclERKNS_4help6VectorILm2EEE
FNDA:197630,_ZN3mde12CEC_FunctionILi10ELi0ELi8EE10equalitiesERKNS_4help6VectorILm10EEE
FNDA:499980,_ZN3mde12CEC_FunctionILi15ELi0ELi5EE12inequalitiesERKNS_4help6VectorILm15EEE
FNDA:12390,_ZN3mde12CEC_FunctionILi2ELi0ELi2EE12inequalitiesERKNS_4help6VectorILm2EEE
FNDA:1,_ZN3mde12CEC_FunctionILi5ELi0ELi38EEC2EPFvPdS2_S2_S2_iE
FNDA:1,_ZN3mde12CEC_FunctionILi8ELi0ELi6EEC2EPFvPdS2_S2_S2_iE
FNDA:9210,_ZN3mde12CEC_FunctionILi5ELi0ELi6EE10equalitiesERKNS_4help6VectorILm5EEE
FNDA:1,_ZN3mde12CEC_FunctionILi20ELi0ELi2EEC2EPFvPdS2_S2_S2_iEddd
FNDA:1,_ZN3mde12CEC_FunctionILi13ELi0ELi9EEC2EPFvPdS2_S2_S2_iE
FNDA:5965,_ZN3mde12CEC_FunctionILi2ELi1ELi0EEclERKNS_4help6VectorILm2EEE
FNDA:41800,_ZN3mde12CEC_FunctionILi10ELi1ELi0EE12inequalitiesERKNS_4help6VectorILm10EEE
FNDA:1425,_ZN3mde12CEC_FunctionILi3ELi0ELi1EEclERKNS_4help6VectorILm3EEE
FNDA:1,_ZN3mde12CEC_FunctionILi10ELi1ELi0EEC2EPFvPdS2_S2_S2_iEddd
FNDA:499980,_ZN3mde12CEC_FunctionILi5ELi3ELi0EEclERKNS_4help6VectorILm5EEE
FNDA:499980,_ZN3mde12CEC_FunctionILi5ELi3ELi0EE12inequalitiesERKNS_4help6VectorILm5EEE
FNDA:1,_ZN3mde12CEC_FunctionILi7ELi5ELi1EEC2EPFvPdS2_S2_S2_iE
FNDA:499980,_ZN3mde12CEC_FunctionILi10ELi3ELi0EE12inequalitiesERKNS_4help6VectorILm10EEE
FNDA:34430,_ZN3mde12CEC_FunctionILi9ELi0ELi13EE10equalitiesERKNS_4help6VectorILm9EEE
FNDA:6505,_ZN3mde12CEC_FunctionILi5ELi0ELi38EEclERKNS_4help6VectorILm5EEE
FNDA:8735,_ZN3mde12CEC_FunctionILi3ELi2ELi0EE10equalitiesERKNS_4help6VectorILm3EEE
FNDA:499980,_ZN3mde12CEC_FunctionILi24ELi12ELi6EE12inequalitiesERKNS_4help6VectorILm24EEE
FNDA:16115,_ZN3mde12CEC_FunctionILi13ELi0ELi9EE12inequalitiesERKNS_4help6VectorILm13EEE
FNDA:1,_ZN3mde12CEC_FunctionILi24ELi12ELi6EEC2EPFvPdS2_S2_S2_iEddd
FNDA:34430,_ZN3mde12CEC_FunctionILi9ELi0ELi13EEclERKNS_4help6VectorILm9EEE
FNDA:17365,_ZN3mde12CEC_FunctionILi22ELi4ELi2EEclERKNS_4help6VectorILm22EEE
FNDA:8735,_ZN3mde12CEC_FunctionILi3ELi2ELi0EEclERKNS_4help6VectorILm3EEE
FNDA:158600,_ZN3mde12CEC_FunctionILi6ELi4ELi0EE12inequalitiesERKNS_4help6VectorILm6EEE
FNDA:17365,_ZN3mde12CEC_FunctionILi22ELi4ELi2EE10equalitiesERKNS_4help6VectorILm22EEE
FNDA:499980,_ZN3mde12CEC_FunctionILi24ELi12ELi6EE10equalitiesERKNS_4help6VectorILm24EEE
FNDA:284635,_ZN3mde12CEC_FunctionILi9ELi4ELi2EEclERKNS_4help6VectorILm9EEE
FNDA:1,_ZN3mde12CEC_FunctionILi4ELi3ELi2EEC2EPFvPdS2_S2_S2_iE
FNDA:1,_ZN3mde12CEC_FunctionILi6ELi4ELi0EEC2EPFvPdS2_S2_S2_iE
FNDA:1,_ZN3mde12CEC_FunctionILi2ELi0ELi2EEC2EPFvPdS2_S2_S2_iEddd
FNDA:151390,_ZN3mde12CEC_FunctionILi8ELi0ELi6EE10equalitiesERKNS_4help6VectorILm8EEE
FNDA:5965,_ZN3mde12CEC_FunctionILi2ELi1ELi0EE12inequalitiesERKNS_4help6VectorILm2EEE
FNDA:16115,_ZN3mde12CEC_FunctionILi13ELi0ELi9EEclERKNS_4help6VectorILm13EEE
FNDA:9945,_ZN3mde12CEC_FunctionILi7ELi0ELi4EE12inequalitiesERKNS_4help6VectorILm7EEE
FNDA:41800,_ZN3mde12CEC_FunctionILi10ELi1ELi0EE10equalitiesERKNS_4help6VectorILm10EEE
FNDA:41800,_ZN3mde12CEC_FunctionILi10ELi1ELi0EEclERKNS_4help6VectorILm10EEE
FNDA:2,_ZN3mde12CEC_FunctionILi2ELi0ELi2EEC2EPFvPdS2_S2_S2_iE
FNDA:284635,_ZN3mde12CEC_FunctionILi9ELi4ELi2EE12inequalitiesERKNS_4help6VectorILm9EEE
FNDA:499980,_ZN3mde12CEC_FunctionILi7ELi5ELi1EE12inequalitiesERKNS_4help6VectorILm7EEE
FNDA:1,_ZN3mde12CEC_FunctionILi10ELi0ELi8EEC2EPFvPdS2_S2_S2_iEddd
FNDA:1,_ZN3mde12CEC_FunctionILi5ELi0ELi6EEC2EPFvPdS2_S2_S2_iE
FNDA:1,_ZN3mde12CEC_FunctionILi15ELi0ELi5EEC2EPFvPdS2_S2_S2_iEddd
FNDA:9945,_ZN3mde12CEC_FunctionILi7ELi0ELi4EEclERKNS_4help6VectorILm7EEE
FNDA:12390,_ZN3mde12CEC_FunctionILi2ELi0ELi2EE10equalitiesERKNS_4help6VectorILm2EEE
FNDA:499980,_ZN3mde12CEC_FunctionILi24ELi12ELi6EEclERKNS_4help6VectorILm24EEE
FNDA:158600,_ZN3mde12CEC_FunctionILi6ELi4ELi0EEclERKNS_4help6VectorILm6EEE
FNDA:6505,_ZN3mde12CEC_FunctionILi5ELi0ELi38EE12inequalitiesERKNS_4help6VectorILm5EEE
FNDA:1425,_ZN3mde12CEC_FunctionILi3ELi0ELi1EE12inequalitiesERKNS_4help6VectorILm3EEE
FNDA:8735,_ZN3mde12CEC_FunctionILi3ELi2ELi0EE12inequalitiesERKNS_4help6VectorILm3EEE
FNDA:5965,_ZN3mde12CEC_FunctionILi2ELi1ELi0EE10equalitiesERKNS_4help6VectorILm2EEE
FNDA:9210,_ZN3mde12CEC_FunctionILi5ELi0ELi6EEclERKNS_4help6VectorILm5EEE
FNDA:34430,_ZN3mde12CEC_FunctionILi9ELi0ELi13EE12inequalitiesERKNS_4help6VectorILm9EEE
FNDA:9210,_ZN3mde12CEC_FunctionILi5ELi0ELi6EE12inequalitiesERKNS_4help6VectorILm5EEE
FNF:89
FNH:89
DA:37,13
DA:39,11
DA:52,3968340
DA:55,3968340
DA:60,3968340
DA:62,3968340
DA:70,3968340
DA:72,3968340
DA:75,3968340
DA:77,3968340
LF:10
LH:10
end_of_record
TN:
SF:/home/matheus/Algoritmos/MDE/include/MDE/Function.h
FN:29,_ZN3mde8FunctionILi0EED2Ev
FN:29,_ZN3mde8FunctionILi0EEC2ERKS1_
FN:36,_ZN3mde8FunctionILi7EEC2Ed
FN:36,_ZN3mde8FunctionILi0EEC2Ed
FN:36,_ZN3mde8FunctionILi4EEC2Ed
FN:36,_ZN3mde8FunctionILi9EEC2Ed
FN:36,_ZN3mde8FunctionILi6EEC2Ed
FN:36,_ZN3mde8FunctionILi8EEC2Ed
FN:36,_ZN3mde8FunctionILi2EEC2Ed
FN:36,_ZN3mde8FunctionILi22EEC2Ed
FN:36,_ZN3mde8FunctionILi5EEC2Ed
FN:36,_ZN3mde8FunctionILi13EEC2Ed
FN:46,_ZN3mde8FunctionILi15EEC2Eddd
FN:46,_ZN3mde8FunctionILi20EEC2Eddd
FN:46,_ZN3mde8FunctionILi2EEC2Eddd
FN:46,_ZN3mde8FunctionILi24EEC2Eddd
FN:46,_ZN3mde8FunctionILi3EEC2Eddd
FN:46,_ZN3mde8FunctionILi7EEC2Eddd
FN:46,_ZN3mde8FunctionILi10EEC2Eddd
FN:50,_ZN3mde8FunctionILi24EEC2Eiddd
FN:50,_ZN3mde8FunctionILi10EEC2Eiddd
FN:50,_ZN3mde8FunctionILi2EEC2Eiddd
FN:50,_ZN3mde8FunctionILi20EEC2Eiddd
FN:50,_ZN3mde8FunctionILi15EEC2Eiddd
FN:50,_ZN3mde8FunctionILi3EEC2Eiddd
FN:50,_ZN3mde8FunctionILi7EEC2Eiddd
FN:76,_ZNK3mde8FunctionILi0EE10equalitiesERKNS_4help6VectorILm0EEE
FN:81,_ZNK3mde8FunctionILi0EE12inequalitiesERKNS_4help6VectorILm0EEE
FN:114,_ZN3mde9SetValuesIN12_GLOBAL__N_110RosenbrockEED2Ev
FN:114,_ZN3mde9SetValuesIN12_GLOBAL__N_16AckleyEED2Ev
FN:114,_ZN3mde9SetValuesIN12_GLOBAL__N_115ConstRosenbrockEED2Ev
FN:125,_ZN3mde9SetValuesINS_7CEC20062F9EEC2EdRKS2_
FN:125,_ZN3mde9SetValuesINS_7CEC20063F19EEC2EdRKS2_
FN:125,_ZN3mde9SetValuesINS_7CEC20062F7EEC2EdRKS2_
FN:125,_ZN3mde9SetValuesINS_7CEC20063F24EEC2EdRKS2_
FN:125,_ZN3mde9SetValuesINS_7CEC20063F22EEC2EdRKS2_
FN:125,_ZN3mde9SetValuesINS_7CEC20062F8EEC2EdRKS2_
FN:125,_ZN3mde9SetValuesINS_7CEC20063F16EEC2EdRKS2_
FN:125,_ZN3mde9SetValuesINS_7CEC20062F1EEC2EdRKS2_
FN:125,_ZN3mde9SetValuesIN12_GLOBAL__N_115ConstRosenbrockEEC2EdRKS2_
FN:125,_ZN3mde9SetValuesINS_7CEC20063F13EEC2EdRKS2_
FN:125,_ZN3mde9SetValuesINS_7CEC20063F14EEC2EdRKS2_
FN:125,_ZN3mde9SetValuesIN12_GLOBAL__N_16AckleyEEC2EdRKS2_
FN:125,_ZN3mde9SetValuesINS_7CEC20063F10EEC2EdRKS2_
FN:125,_ZN3mde9SetValuesINS_7CEC20063F15EEC2EdRKS2_
FN:125,_ZN3mde9SetValuesINS_7CEC20063F17EEC2EdRKS2_
FN:125,_ZN3mde9SetValuesINS_7CEC20062F5EEC2EdRKS2_
FN:125,_ZN3mde9SetValuesINS_7CEC20062F3EEC2EdRKS2_
FN:125,_ZN3mde9SetValuesINS_7CEC20063F18EEC2EdRKS2_
FN:125,_ZN3mde9SetValuesINS_7CEC20063F20EEC2EdRKS2_
FN:125,_ZN3mde9SetValuesINS_7CEC20063F21EEC2EdRKS2_
FN:125,_ZN3mde9SetValuesINS_7CEC20062F2EEC2EdRKS2_
FN:125,_ZN3mde9SetValuesINS_7CEC20063F12EEC2EdRKS2_
FN:125,_ZN3mde9SetValuesIN12_GLOBAL__N_110RosenbrockEEC2EdRKS2_
FN:125,_ZN3mde9SetValuesINS_7CEC20062F6EEC2EdRKS2_
FN:125,_ZN3mde9SetValuesINS_7CEC20062F4EEC2EdRKS2_
FN:125,_ZN3mde9SetValuesINS_7CEC20063F23EEC2EdRKS2_
FN:125,_ZN3mde9SetValuesINS_7CEC20063F11EEC2EdRKS2_
FN:134,_ZN3mde9SetValuesINS_7CEC20063F18EEclERNS_4help6VectorILm9EEE
FN:134,_ZN3mde9SetValuesINS_7CEC20062F7EEclERNS_4help6VectorILm10EEE
FN:134,_ZN3mde9SetValuesINS_7CEC20062F9EEclERNS_4help6VectorILm7EEE
FN:134,_ZN3mde9SetValuesINS_7CEC20063F10EEclERNS_4help6VectorILm8EEE
FN:134,_ZN3mde9SetValuesINS_7CEC20063F24EEclERNS_4help6VectorILm2EEE
FN:134,_ZN3mde9SetValuesIN12_GLOBAL__N_110RosenbrockEEclERNS_4help6VectorILm0EEE
FN:134,_ZN3mde9SetValuesINS_7CEC20063F16EEclERNS_4help6VectorILm5EEE
FN:134,_ZN3mde9SetValuesINS_7CEC20063F20EEclERNS_4help6VectorILm24EEE
FN:134,_ZN3mde9SetValuesIN12_GLOBAL__N_115ConstRosenbrockEEclERNS_4help6VectorILm0EEE
FN:134,_ZN3mde9SetValuesINS_7CEC20063F23EEclERNS_4help6VectorILm9EEE
FN:134,_ZN3mde9SetValuesINS_7CEC20062F5EEclERNS_4help6VectorILm4EEE
FN:134,_ZN3mde9SetValuesINS_7CEC20063F21EEclERNS_4help6VectorILm7EEE
FN:134,_ZN3mde9SetValuesINS_7CEC20062F4EEclERNS_4help6VectorILm5EEE
FN:134,_ZN3mde9SetValuesINS_7CEC20062F2EEclERNS_4help6VectorILm20EEE
FN:134,_ZN3mde9SetValuesINS_7CEC20062F1EEclERNS_4help6VectorILm13EEE
FN:134,_ZN3mde9SetValuesINS_7CEC20063F19EEclERNS_4help6VectorILm15EEE
FN:134,_ZN3mde9SetValuesINS_7CEC20063F14EEclERNS_4help6VectorILm10EEE
FN:134,_ZN3mde9SetValuesINS_7CEC20063F17EEclERNS_4help6VectorILm6EEE
FN:134,_ZN3mde9SetValuesINS_7CEC20062F3EEclERNS_4help6VectorILm10EEE
FN:134,_ZN3mde9SetValuesINS_7CEC20063F15EEclERNS_4help6VectorILm3EEE
FN:134,_ZN3mde9SetValuesINS_7CEC20063F13EEclERNS_4help6VectorILm5EEE
FN:134,_ZN3mde9SetValuesINS_7CEC20062F8EEclERNS_4help6VectorILm2EEE
FN:134,_ZN3mde9SetValuesINS_7CEC20062F6EEclERNS_4help6VectorILm2EEE
FN:134,_ZN3mde9SetValuesINS_7CEC20063F11EEclERNS_4help6VectorILm2EEE
FN:134,_ZN3mde9SetValuesINS_7CEC20063F22EEclERNS_4help6VectorILm22EEE
FN:134,_ZN3mde9SetValuesINS_7CEC20063F12EEclERNS_4help6VectorILm3EEE
FN:134,_ZN3mde9SetValuesIN12_GLOBAL__N_16AckleyEEclERNS_4help6VectorILm0EEE
FN:163,_ZN3mde9SetValuesIN12_GLOBAL__N_110RosenbrockEE17inequalitiesValueIS2_Li0EEEdRKNS_4help6VectorILm0EEE
FN:163,_ZN3mde9SetValuesIN12_GLOBAL__N_115ConstRosenbrockEE17inequalitiesValueIS2_Li0EEEdRKNS_4help6VectorILm0EEE
FN:163,_ZN3mde9SetValuesIN12_GLOBAL__N_16AckleyEE17inequalitiesValueIS2_Li0EEEdRKNS_4help6VectorILm0EEE
FN:185,_ZN3mde9SetValuesIN12_GLOBAL__N_110RosenbrockEE15equalitiesValueIS2_Li0EEEdRKNS_4help6VectorILm0EEE
FN:185,_ZN3mde9SetValuesIN12_GLOBAL__N_16AckleyEE15equalitiesValueIS2_Li0EEEdRKNS_4help6VectorILm0EEE
FN:185,_ZN3mde9SetValuesIN12_GLOBAL__N_115ConstRosenbrockEE15equalitiesValueIS2_Li0EEEdRKNS_4help6VectorILm0EEE
FN:198,_ZN3mde9SetValuesINS_7CEC20062F8EE17inequalitiesValueIS2_Li0EEEdRKNS_4help6VectorILm2EEE
FN:198,_ZN3mde9SetValuesINS_7CEC20062F9EE17inequalitiesValueIS2_Li0EEEdRKNS_4help6VectorILm7EEE
FN:198,_ZN3mde9SetValuesINS_7CEC20063F15EE17inequalitiesValueIS2_Li0EEEdRKNS_4help6VectorILm3EEE
FN:198,_ZN3mde9SetValuesINS_7CEC20063F12EE17inequalitiesValueIS2_Li0EEEdRKNS_4help6VectorILm3EEE
FN:198,_ZN3mde9SetValuesINS_7CEC20063F24EE17inequalitiesValueIS2_Li0EEEdRKNS_4help6VectorILm2EEE
FN:198,_ZN3mde9SetValuesINS_7CEC20063F21EE17inequalitiesValueIS2_Li0EEEdRKNS_4help6VectorILm7EEE
FN:198,_ZN3mde9SetValuesINS_7CEC20062F5EE17inequalitiesValueIS2_Li0EEEdRKNS_4help6VectorILm4EEE
FN:198,_ZN3mde9SetValuesINS_7CEC20062F7EE17inequalitiesValueIS2_Li0EEEdRKNS_4help6VectorILm10EEE
FN:198,_ZN3mde9SetValuesINS_7CEC20063F18EE17inequalitiesValueIS2_Li0EEEdRKNS_4help6VectorILm9EEE
FN:198,_ZN3mde9SetValuesINS_7CEC20063F23EE17inequalitiesValueIS2_Li0EEEdRKNS_4help6VectorILm9EEE
FN:198,_ZN3mde9SetValuesINS_7CEC20063F16EE17inequalitiesValueIS2_Li0EEEdRKNS_4help6VectorILm5EEE
FN:198,_ZN3mde9SetValuesINS_7CEC20063F17EE17inequalitiesValueIS2_Li0EEEdRKNS_4help6VectorILm6EEE
FN:198,_ZN3mde9SetValuesINS_7CEC20062F2EE17inequalitiesValueIS2_Li0EEEdRKNS_4help6VectorILm20EEE
FN:198,_ZN3mde9SetValuesINS_7CEC20063F10EE17inequalitiesValueIS2_Li0EEEdRKNS_4help6VectorILm8EEE
FN:198,_ZN3mde9SetValuesINS_7CEC20063F19EE17inequalitiesValueIS2_Li0EEEdRKNS_4help6VectorILm15EEE
FN:198,_ZN3mde9SetValuesINS_7CEC20063F11EE17inequalitiesValueIS2_Li0EEEdRKNS_4help6VectorILm2EEE
FN:198,_ZN3mde9SetValuesINS_7CEC20062F4EE17inequalitiesValueIS2_Li0EEEdRKNS_4help6VectorILm5EEE
FN:198,_ZN3mde9SetValuesINS_7CEC20063F14EE17inequalitiesValueIS2_Li0EEEdRKNS_4help6VectorILm10EEE
FN:198,_ZN3mde9SetValuesINS_7CEC20063F13EE17inequalitiesValueIS2_Li0EEEdRKNS_4help6VectorILm5EEE
FN:198,_ZN3mde9SetValuesINS_7CEC20062F6EE17inequalitiesValueIS2_Li0EEEdRKNS_4help6VectorILm2EEE
FN:198,_ZN3mde9SetValuesINS_7CEC20062F1EE17inequalitiesValueIS2_Li0EEEdRKNS_4help6VectorILm13EEE
FN:198,_ZN3mde9SetValuesINS_7CEC20063F22EE17inequalitiesValueIS2_Li0EEEdRKNS_4help6VectorILm22EEE
FN:198,_ZN3mde9SetValuesINS_7CEC20062F3EE17inequalitiesValueIS2_Li0EEEdRKNS_4help6VectorILm10EEE
FN:198,_ZN3mde9SetValuesINS_7CEC20063F20EE17inequalitiesValueIS2_Li0EEEdRKNS_4help6VectorILm24EEE
FN:202,_ZZN3mde9SetValuesINS_7CEC20063F20EE17inequalitiesValueIS2_Li0EEEdRKNS_4help6VectorILm24EEEENKUlddE_clEdd
FN:202,_ZZN3mde9SetValuesINS_7CEC20062F2EE17inequalitiesValueIS2_Li0EEEdRKNS_4help6VectorILm20EEEENKUlddE_clEdd
FN:202,_ZZN3mde9SetValuesINS_7CEC20062F9EE17inequalitiesValueIS2_Li0EEEdRKNS_4help6VectorILm7EEEENKUlddE_clEdd
FN:202,_ZZN3mde9SetValuesINS_7CEC20063F17EE17inequalitiesValueIS2_Li0EEEdRKNS_4help6VectorILm6EEEENKUlddE_clEdd
FN:202,_ZZN3mde9SetValuesINS_7CEC20063F23EE17inequalitiesValueIS2_Li0EEEdRKNS_4help6VectorILm9EEEENKUlddE_clEdd
FN:202,_ZZN3mde9SetValuesINS_7CEC20063F10EE17inequalitiesValueIS2_Li0EEEdRKNS_4help6VectorILm8EEEENKUlddE_clEdd
FN:202,_ZZN3mde9SetValuesINS_7CEC20063F24EE17inequalitiesValueIS2_Li0EEEdRKNS_4help6VectorILm2EEEENKUlddE_clEdd
FN:202,_ZZN3mde9SetValuesINS_7CEC20062F6EE17inequalitiesValueIS2_Li0EEEdRKNS_4help6VectorILm2EEEENKUlddE_clEdd
FN:202,_ZZN3mde9SetValuesINS_7CEC20062F5EE17inequalitiesValueIS2_Li0EEEdRKNS_4help6VectorILm4EEEENKUlddE_clEdd
FN:202,_ZZN3mde9SetValuesINS_7CEC20062F3EE17inequalitiesValueIS2_Li0EEEdRKNS_4help6VectorILm10EEEENKUlddE_clEdd
FN:202,_ZZN3mde9SetValuesINS_7CEC20063F13EE17inequalitiesValueIS2_Li0EEEdRKNS_4help6VectorILm5EEEENKUlddE_clEdd
FN:202,_ZZN3mde9SetValuesINS_7CEC20063F16EE17inequalitiesValueIS2_Li0EEEdRKNS_4help6VectorILm5EEEENKUlddE_clEdd
FN:202,_ZZN3mde9SetValuesINS_7CEC20062F7EE17inequalitiesValueIS2_Li0EEEdRKNS_4help6VectorILm10EEEENKUlddE_clEdd
FN:202,_ZZN3mde9SetValuesINS_7CEC20063F11EE17inequalitiesValueIS2_Li0EEEdRKNS_4help6VectorILm2EEEENKUlddE_clEdd
FN:202,_ZZN3mde9SetValuesINS_7CEC20062F4EE17inequalitiesValueIS2_Li0EEEdRKNS_4help6VectorILm5EEEENKUlddE_clEdd
FN:202,_ZZN3mde9SetValuesINS_7CEC20062F8EE17inequalitiesValueIS2_Li0EEEdRKNS_4help6VectorILm2EEEENKUlddE_clEdd
FN:202,_ZZN3mde9SetValuesINS_7CEC20062F1EE17inequalitiesValueIS2_Li0EEEdRKNS_4help6VectorILm13EEEENKUlddE_clEdd
FN:202,_ZZN3mde9SetValuesINS_7CEC20063F21EE17inequalitiesValueIS2_Li0EEEdRKNS_4help6VectorILm7EEEENKUlddE_clEdd
FN:202,_ZZN3mde9SetValuesINS_7CEC20063F14EE17inequalitiesValueIS2_Li0EEEdRKNS_4help6VectorILm10EEEENKUlddE_clEdd
FN:202,_ZZN3mde9SetValuesINS_7CEC20063F18EE17inequalitiesValueIS2_Li0EEEdRKNS_4help6VectorILm9EEEENKUlddE_clEdd
FN:202,_ZZN3mde9SetValuesINS_7CEC20063F19EE17inequalitiesValueIS2_Li0EEEdRKNS_4help6VectorILm15EEEENKUlddE_clEdd
FN:202,_ZZN3mde9SetValuesINS_7CEC20063F22EE17inequalitiesValueIS2_Li0EEEdRKNS_4help6VectorILm22EEEENKUlddE_clEdd
FN:202,_ZZN3mde9SetValuesINS_7CEC20063F15EE17inequalitiesValueIS2_Li0EEEdRKNS_4help6VectorILm3EEEENKUlddE_clEdd
FN:202,_ZZN3mde9SetValuesINS_7CEC20063F12EE17inequalitiesValueIS2_Li0EEEdRKNS_4help6VectorILm3EEEENKUlddE_clEdd
FN:212,_ZN3mde9SetValuesINS_7CEC20062F7EE15equalitiesValueIS2_Li0EEEdRKNS_4help6VectorILm10EEE
FN:212,_ZN3mde9SetValuesINS_7CEC20062F6EE15equalitiesValueIS2_Li0EEEdRKNS_4help6VectorILm2EEE
FN:212,_ZN3mde9SetValuesINS_7CEC20062F8EE15equalitiesValueIS2_Li0EEEdRKNS_4help6VectorILm2EEE
FN:212,_ZN3mde9SetValuesINS_7CEC20063F23EE15equalitiesValueIS2_Li0EEEdRKNS_4help6VectorILm9EEE
FN:212,_ZN3mde9SetValuesINS_7CEC20063F13EE15equalitiesValueIS2_Li0EEEdRKNS_4help6VectorILm5EEE
FN:212,_ZN3mde9SetValuesINS_7CEC20063F16EE15equalitiesValueIS2_Li0EEEdRKNS_4help6VectorILm5EEE
FN:212,_ZN3mde9SetValuesINS_7CEC20062F1EE15equalitiesValueIS2_Li0EEEdRKNS_4help6VectorILm13EEE
FN:212,_ZN3mde9SetValuesINS_7CEC20063F21EE15equalitiesValueIS2_Li0EEEdRKNS_4help6VectorILm7EEE
FN:212,_ZN3mde9SetValuesINS_7CEC20063F17EE15equalitiesValueIS2_Li0EEEdRKNS_4help6VectorILm6EEE
FN:212,_ZN3mde9SetValuesINS_7CEC20063F18EE15equalitiesValueIS2_Li0EEEdRKNS_4help6VectorILm9EEE
FN:212,_ZN3mde9SetValuesINS_7CEC20063F15EE15equalitiesValueIS2_Li0EEEdRKNS_4help6VectorILm3EEE
FN:212,_ZN3mde9SetValuesINS_7CEC20062F5EE15equalitiesValueIS2_Li0EEEdRKNS_4help6VectorILm4EEE
FN:212,_ZN3mde9SetValuesINS_7CEC20062F4EE15equalitiesValueIS2_Li0EEEdRKNS_4help6VectorILm5EEE
FN:212,_ZN3mde9SetValuesINS_7CEC20063F19EE15equalitiesValueIS2_Li0EEEdRKNS_4help6VectorILm15EEE
FN:212,_ZN3mde9SetValuesINS_7CEC20062F9EE15equalitiesValueIS2_Li0EEEdRKNS_4help6VectorILm7EEE
FN:212,_ZN3mde9SetValuesINS_7CEC20062F2EE15equalitiesValueIS2_Li0EEEdRKNS_4help6VectorILm20EEE
FN:212,_ZN3mde9SetValuesINS_7CEC20063F24EE15equalitiesValueIS2_Li0EEEdRKNS_4help6VectorILm2EEE
FN:212,_ZN3mde9SetValuesINS_7CEC20063F20EE15equalitiesValueIS2_Li0EEEdRKNS_4help6VectorILm24EEE
FN:212,_ZN3mde9SetValuesINS_7CEC20063F12EE15equalitiesValueIS2_Li0EEEdRKNS_4help6VectorILm3EEE
FN:212,_ZN3mde9SetValuesINS_7CEC20063F14EE15equalitiesValueIS2_Li0EEEdRKNS_4help6VectorILm10EEE
FN:212,_ZN3mde9SetValuesINS_7CEC20063F22EE15equalitiesValueIS2_Li0EEEdRKNS_4help6VectorILm22EEE
FN:212,_ZN3mde9SetValuesINS_7CEC20063F11EE15equalitiesValueIS2_Li0EEEdRKNS_4help6VectorILm2EEE
FN:212,_ZN3mde9SetValuesINS_7CEC20063F10EE15equalitiesValueIS2_Li0EEEdRKNS_4help6VectorILm8EEE
FN:212,_ZN3mde9SetValuesINS_7CEC20062F3EE15equalitiesValueIS2_Li0EEEdRKNS_4help6VectorILm10EEE
FN:216,_ZZN3mde9SetValuesINS_7CEC20063F17EE15equalitiesValueIS2_Li0EEEdRKNS_4help6VectorILm6EEEENKUlddE_clEdd
FN:216,_ZZN3mde9SetValuesINS_7CEC20062F7EE15equalitiesValueIS2_Li0EEEdRKNS_4help6VectorILm10EEEENKUlddE_clEdd
FN:216,_ZZN3mde9SetValuesINS_7CEC20062F8EE15equalitiesValueIS2_Li0EEEdRKNS_4help6VectorILm2EEEENKUlddE_clEdd
FN:216,_ZZN3mde9SetValuesINS_7CEC20063F18EE15equalitiesValueIS2_Li0EEEdRKNS_4help6VectorILm9EEEENKUlddE_clEdd
FN:216,_ZZN3mde9SetValuesINS_7CEC20063F16EE15equalitiesValueIS2_Li0EEEdRKNS_4help6VectorILm5EEEENKUlddE_clEdd
FN:216,_ZZN3mde9SetValuesINS_7CEC20062F2EE15equalitiesValueIS2_Li0EEEdRKNS_4help6VectorILm20EEEENKUlddE_clEdd
FN:216,_ZZN3mde9SetValuesINS_7CEC20063F14EE15equalitiesValueIS2_Li0EEEdRKNS_4help6VectorILm10EEEENKUlddE_clEdd
FN:216,_ZZN3mde9SetValuesINS_7CEC20063F23EE15equalitiesValueIS2_Li0EEEdRKNS_4help6VectorILm9EEEENKUlddE_clEdd
FN:216,_ZZN3mde9SetValuesINS_7CEC20063F13EE15equalitiesValueIS2_Li0EEEdRKNS_4help6VectorILm5EEEENKUlddE_clEdd
FN:216,_ZZN3mde9SetValuesINS_7CEC20062F5EE15equalitiesValueIS2_Li0EEEdRKNS_4help6VectorILm4EEEENKUlddE_clEdd
FN:216,_ZZN3mde9SetValuesINS_7CEC20062F1EE15equalitiesValueIS2_Li0EEEdRKNS_4help6VectorILm13EEEENKUlddE_clEdd
FN:216,_ZZN3mde9SetValuesINS_7CEC20062F4EE15equalitiesValueIS2_Li0EEEdRKNS_4help6VectorILm5EEEENKUlddE_clEdd
FN:216,_ZZN3mde9SetValuesINS_7CEC20062F6EE15equalitiesValueIS2_Li0EEEdRKNS_4help6VectorILm2EEEENKUlddE_clEdd
FN:216,_ZZN3mde9SetValuesINS_7CEC20063F24EE15equalitiesValueIS2_Li0EEEdRKNS_4help6VectorILm2EEEENKUlddE_clEdd
FN:216,_ZZN3mde9SetValuesINS_7CEC20063F10EE15equalitiesValueIS2_Li0EEEdRKNS_4help6VectorILm8EEEENKUlddE_clEdd
FN:216,_ZZN3mde9SetValuesINS_7CEC20062F9EE15equalitiesValueIS2_Li0EEEdRKNS_4help6VectorILm7EEEENKUlddE_clEdd
FN:216,_ZZN3mde9SetValuesINS_7CEC20063F11EE15equalitiesValueIS2_Li0EEEdRKNS_4help6VectorILm2EEEENKUlddE_clEdd
FN:216,_ZZN3mde9SetValuesINS_7CEC20063F19EE15equalitiesValueIS2_Li0EEEdRKNS_4help6VectorILm15EEEENKUlddE_clEdd
FN:216,_ZZN3mde9SetValuesINS_7CEC20063F15EE15equalitiesValueIS2_Li0EEEdRKNS_4help6VectorILm3EEEENKUlddE_clEdd
FN:216,_ZZN3mde9SetValuesINS_7CEC20063F20EE15equalitiesValueIS2_Li0EEEdRKNS_4help6VectorILm24EEEENKUlddE_clEdd
FN:216,_ZZN3mde9SetValuesINS_7CEC20063F21EE15equalitiesValueIS2_Li0EEEdRKNS_4help6VectorILm7EEEENKUlddE_clEdd
FN:216,_ZZN3mde9SetValuesINS_7CEC20063F12EE15equalitiesValueIS2_Li0EEEdRKNS_4help6VectorILm3EEEENKUlddE_clEdd
FN:216,_ZZN3mde9SetValuesINS_7CEC20062F3EE15equalitiesValueIS2_Li0EEEdRKNS_4help6VectorILm10EEEENKUlddE_clEdd
FN:216,_ZZN3mde9SetValuesINS_7CEC20063F22EE15equalitiesValueIS2_Li0EEEdRKNS_4help6VectorILm22EEEENKUlddE_clEdd
FNDA:499980,_ZN3mde9SetValuesINS_7CEC20063F14EE15equalitiesValueIS2_Li0EEEdRKNS_4help6VectorILm10EEE
FNDA:1,_ZN3mde9SetValuesINS_7CEC20063F18EEC2EdRKS2_
FNDA:17365,_ZN3mde9SetValuesINS_7CEC20063F22EE15equalitiesValueIS2_Li0EEEdRKNS_4help6VectorILm22EEE
FNDA:1,_ZN3mde9SetValuesINS_7CEC20063F20EEC2EdRKS2_
FNDA:0,_ZZN3mde9SetValuesINS_7CEC20063F14EE17inequalitiesValueIS2_Li0EEEdRKNS_4help6VectorILm10EEEENKUlddE_clEdd
FNDA:499980,_ZZN3mde9SetValuesINS_7CEC20063F21EE17inequalitiesValueIS2_Li0EEEdRKNS_4help6VectorILm7EEEENKUlddE_clEdd
FNDA:2499900,_ZZN3mde9SetValuesINS_7CEC20063F21EE15equalitiesValueIS2_Li0EEEdRKNS_4help6VectorILm7EEEENKUlddE_clEdd
FNDA:1,_ZN3mde9SetValuesIN12_GLOBAL__N_115ConstRosenbrockEED2Ev
FNDA:9245,_ZN3mde9SetValuesINS_7CEC20062F6EEclERNS_4help6VectorILm2EEE
FNDA:1,_ZN3mde8FunctionILi22EEC2Ed
FNDA:41800,_ZZN3mde9SetValuesINS_7CEC20062F3EE15equalitiesValueIS2_Li0EEEdRKNS_4help6VectorILm10EEEENKUlddE_clEdd
FNDA:2499900,_ZZN3mde9SetValuesINS_7CEC20063F19EE17inequalitiesValueIS2_Li0EEEdRKNS_4help6VectorILm15EEEENKUlddE_clEdd
FNDA:41800,_ZN3mde9SetValuesINS_7CEC20062F3EE17inequalitiesValueIS2_Li0EEEdRKNS_4help6VectorILm10EEE
FNDA:17365,_ZN3mde9SetValuesINS_7CEC20063F22EE17inequalitiesValueIS2_Li0EEEdRKNS_4help6VectorILm22EEE
FNDA:0,_ZZN3mde9SetValuesINS_7CEC20063F12EE15equalitiesValueIS2_Li0EEEdRKNS_4help6VectorILm3EEEENKUlddE_clEdd
FNDA:1,_ZN3mde9SetValuesINS_7CEC20063F21EEC2EdRKS2_
FNDA:1,_ZN3mde9SetValuesINS_7CEC20062F2EEC2EdRKS2_
FNDA:16115,_ZN3mde9SetValuesINS_7CEC20062F1EE17inequalitiesValueIS2_Li0EEEdRKNS_4help6VectorILm13EEE
FNDA:1,_ZN3mde9SetValuesINS_7CEC20063F12EEC2EdRKS2_
FNDA:5965,_ZN3mde9SetValuesINS_7CEC20063F11EE15equalitiesValueIS2_Li0EEEdRKNS_4help6VectorILm2EEE
FNDA:447590,_ZZN3mde9SetValuesINS_7CEC20063F18EE17inequalitiesValueIS2_Li0EEEdRKNS_4help6VectorILm9EEEENKUlddE_clEdd
FNDA:151390,_ZN3mde9SetValuesINS_7CEC20063F10EE15equalitiesValueIS2_Li0EEEdRKNS_4help6VectorILm8EEE
FNDA:34730,_ZZN3mde9SetValuesINS_7CEC20063F22EE17inequalitiesValueIS2_Li0EEEdRKNS_4help6VectorILm22EEEENKUlddE_clEdd
FNDA:69460,_ZZN3mde9SetValuesINS_7CEC20063F22EE15equalitiesValueIS2_Li0EEEdRKNS_4help6VectorILm22EEEENKUlddE_clEdd
FNDA:5965,_ZN3mde9SetValuesINS_7CEC20063F11EEclERNS_4help6VectorILm2EEE
FNDA:1,_ZN3mde9SetValuesIN12_GLOBAL__N_110RosenbrockEEC2EdRKS2_
FNDA:499980,_ZN3mde9SetValuesIN12_GLOBAL__N_16AckleyEEclERNS_4help6VectorILm0EEE
FNDA:499980,_ZN3mde9SetValuesINS_7CEC20063F20EE17inequalitiesValueIS2_Li0EEEdRKNS_4help6VectorILm24EEE
FNDA:1,_ZN3mde9SetValuesINS_7CEC20063F11EEC2EdRKS2_
FNDA:1425,_ZZN3mde9SetValuesINS_7CEC20063F12EE17inequalitiesValueIS2_Li0EEEdRKNS_4help6VectorILm3EEEENKUlddE_clEdd
FNDA:1,_ZN3mde8FunctionILi13EEC2Ed
FNDA:41800,_ZN3mde9SetValuesINS_7CEC20062F3EE15equalitiesValueIS2_Li0EEEdRKNS_4help6VectorILm10EEE
FNDA:2,_ZN3mde8FunctionILi3EEC2Eiddd
FNDA:1,_ZN3mde8FunctionILi7EEC2Eiddd
FNDA:1,_ZN3mde9SetValuesINS_7CEC20062F4EEC2EdRKS2_
FNDA:3,_ZN3mde8FunctionILi10EEC2Eddd
FNDA:1,_ZN3mde9SetValuesINS_7CEC20062F6EEC2EdRKS2_
FNDA:3,_ZN3mde8FunctionILi5EEC2Ed
FNDA:1425,_ZN3mde9SetValuesINS_7CEC20063F12EEclERNS_4help6VectorILm3EEE
FNDA:0,_ZZN3mde9SetValuesINS_7CEC20063F15EE17inequalitiesValueIS2_Li0EEEdRKNS_4help6VectorILm3EEEENKUlddE_clEdd
FNDA:17365,_ZN3mde9SetValuesINS_7CEC20063F22EEclERNS_4help6VectorILm22EEE
FNDA:1,_ZN3mde9SetValuesINS_7CEC20063F23EEC2EdRKS2_
FNDA:499980,_ZN3mde9SetValuesINS_7CEC20063F19EEclERNS_4help6VectorILm15EEE
FNDA:247190,_ZZN3mde9SetValuesINS_7CEC20063F16EE17inequalitiesValueIS2_Li0EEEdRKNS_4help6VectorILm5EEEENKUlddE_clEdd
FNDA:5965,_ZZN3mde9SetValuesINS_7CEC20063F11EE15equalitiesValueIS2_Li0EEEdRKNS_4help6VectorILm2EEEENKUlddE_clEdd
FNDA:9945,_ZN3mde9SetValuesINS_7CEC20062F9EE15equalitiesValueIS2_Li0EEEdRKNS_4help6VectorILm7EEE
FNDA:1,_ZN3mde9SetValuesINS_7CEC20063F14EEC2EdRKS2_
FNDA:151390,_ZN3mde9SetValuesINS_7CEC20063F10EE17inequalitiesValueIS2_Li0EEEdRKNS_4help6VectorILm8EEE
FNDA:499980,_ZN3mde9SetValuesIN12_GLOBAL__N_110RosenbrockEE15equalitiesValueIS2_Li0EEEdRKNS_4help6VectorILm0EEE
FNDA:499980,_ZN3mde9SetValuesINS_7CEC20063F19EE17inequalitiesValueIS2_Li0EEEdRKNS_4help6VectorILm15EEE
FNDA:24640,_ZZN3mde9SetValuesINS_7CEC20062F5EE17inequalitiesValueIS2_Li0EEEdRKNS_4help6VectorILm4EEEENKUlddE_clEdd
FNDA:1,_ZN3mde9SetValuesINS_7CEC20063F13EEC2EdRKS2_
FNDA:9210,_ZN3mde9SetValuesINS_7CEC20062F4EE15equalitiesValueIS2_Li0EEEdRKNS_4help6VectorILm5EEE
FNDA:16115,_ZN3mde9SetValuesINS_7CEC20062F1EEclERNS_4help6VectorILm13EEE
FNDA:499980,_ZN3mde9SetValuesINS_7CEC20063F19EE15equalitiesValueIS2_Li0EEEdRKNS_4help6VectorILm15EEE
FNDA:0,_ZZN3mde9SetValuesINS_7CEC20063F13EE17inequalitiesValueIS2_Li0EEEdRKNS_4help6VectorILm5EEEENKUlddE_clEdd
FNDA:0,_ZZN3mde9SetValuesINS_7CEC20062F3EE17inequalitiesValueIS2_Li0EEEdRKNS_4help6VectorILm10EEEENKUlddE_clEdd
FNDA:1,_ZN3mde8FunctionILi20EEC2Eiddd
FNDA:17470,_ZZN3mde9SetValuesINS_7CEC20063F15EE15equalitiesValueIS2_Li0EEEdRKNS_4help6VectorILm3EEEENKUlddE_clEdd
FNDA:1,_ZN3mde9SetValuesIN12_GLOBAL__N_16AckleyEEC2EdRKS2_
FNDA:1,_ZN3mde9SetValuesIN12_GLOBAL__N_110RosenbrockEED2Ev
FNDA:1,_ZN3mde8FunctionILi24EEC2Eddd
FNDA:1581040,_ZZN3mde9SetValuesINS_7CEC20062F7EE17inequalitiesValueIS2_Li0EEEdRKNS_4help6VectorILm10EEEENKUlddE_clEdd
FNDA:1,_ZN3mde9SetValuesINS_7CEC20063F10EEC2EdRKS2_
FNDA:1499940,_ZNK3mde8FunctionILi0EE10equalitiesERKNS_4help6VectorILm0EEE
FNDA:9210,_ZN3mde9SetValuesINS_7CEC20062F4EE17inequalitiesValueIS2_Li0EEEdRKNS_4help6VectorILm5EEE
FNDA:499980,_ZN3mde9SetValuesIN12_GLOBAL__N_16AckleyEE15equalitiesValueIS2_Li0EEEdRKNS_4help6VectorILm0EEE
FNDA:5965,_ZN3mde9SetValuesINS_7CEC20063F11EE17inequalitiesValueIS2_Li0EEEdRKNS_4help6VectorILm2EEE
FNDA:499980,_ZN3mde9SetValuesINS_7CEC20063F14EEclERNS_4help6VectorILm10EEE
FNDA:0,_ZZN3mde9SetValuesINS_7CEC20063F19EE15equalitiesValueIS2_Li0EEEdRKNS_4help6VectorILm15EEEENKUlddE_clEdd
FNDA:499980,_ZN3mde9SetValuesINS_7CEC20062F2EE15equalitiesValueIS2_Li0EEEdRKNS_4help6VectorILm20EEE
FNDA:41800,_ZN3mde9SetValuesINS_7CEC20062F3EEclERNS_4help6VectorILm10EEE
FNDA:158600,_ZN3mde9SetValuesINS_7CEC20063F17EEclERNS_4help6VectorILm6EEE
FNDA:5999760,_ZZN3mde9SetValuesINS_7CEC20063F20EE15equalitiesValueIS2_Li0EEEdRKNS_4help6VectorILm24EEEENKUlddE_clEdd
FNDA:0,_ZZN3mde9SetValuesINS_7CEC20063F11EE17inequalitiesValueIS2_Li0EEEdRKNS_4help6VectorILm2EEEENKUlddE_clEdd
FNDA:1105,_ZN3mde9SetValuesINS_7CEC20062F8EEclERNS_4help6VectorILm2EEE
FNDA:1,_ZN3mde8FunctionILi15EEC2Eiddd
FNDA:2040,_ZN3mde9SetValuesINS_7CEC20063F24EE15equalitiesValueIS2_Li0EEEdRKNS_4help6VectorILm2EEE
FNDA:499980,_ZN3mde9SetValuesIN12_GLOBAL__N_115ConstRosenbrockEE15equalitiesValueIS2_Li0EEEdRKNS_4help6VectorILm0EEE
FNDA:1,_ZN3mde9SetValuesIN12_GLOBAL__N_16AckleyEED2Ev
FNDA:1,_ZN3mde9SetValuesINS_7CEC20063F17EEC2EdRKS2_
FNDA:1,_ZN3mde9SetValuesINS_7CEC20063F15EEC2EdRKS2_
FNDA:499980,_ZN3mde9SetValuesINS_7CEC20063F14EE17inequalitiesValueIS2_Li0EEEdRKNS_4help6VectorILm10EEE
FNDA:8735,_ZN3mde9SetValuesINS_7CEC20063F15EEclERNS_4help6VectorILm3EEE
FNDA:499980,_ZN3mde9SetValuesINS_7CEC20063F13EEclERNS_4help6VectorILm5EEE
FNDA:1,_ZN3mde9SetValuesINS_7CEC20062F5EEC2EdRKS2_
FNDA:499980,_ZN3mde9SetValuesINS_7CEC20063F20EE15equalitiesValueIS2_Li0EEEdRKNS_4help6VectorILm24EEE
FNDA:2210,_ZZN3mde9SetValuesINS_7CEC20062F8EE17inequalitiesValueIS2_Li0EEEdRKNS_4help6VectorILm2EEEENKUlddE_clEdd
FNDA:145035,_ZZN3mde9SetValuesINS_7CEC20062F1EE17inequalitiesValueIS2_Li0EEEdRKNS_4help6VectorILm13EEEENKUlddE_clEdd
FNDA:1,_ZN3mde8FunctionILi7EEC2Eddd
FNDA:9245,_ZN3mde9SetValuesINS_7CEC20062F6EE17inequalitiesValueIS2_Li0EEEdRKNS_4help6VectorILm2EEE
FNDA:1425,_ZN3mde9SetValuesINS_7CEC20063F12EE15equalitiesValueIS2_Li0EEEdRKNS_4help6VectorILm3EEE
FNDA:2,_ZN3mde8FunctionILi2EEC2Ed
FNDA:499980,_ZN3mde9SetValuesINS_7CEC20063F13EE17inequalitiesValueIS2_Li0EEEdRKNS_4help6VectorILm5EEE
FNDA:55260,_ZZN3mde9SetValuesINS_7CEC20062F4EE17inequalitiesValueIS2_Li0EEEdRKNS_4help6VectorILm5EEEENKUlddE_clEdd
FNDA:2,_ZN3mde8FunctionILi3EEC2Eddd
FNDA:1,_ZN3mde9SetValuesINS_7CEC20062F3EEC2EdRKS2_
FNDA:499980,_ZN3mde9SetValuesIN12_GLOBAL__N_16AckleyEE17inequalitiesValueIS2_Li0EEEdRKNS_4help6VectorILm0EEE
FNDA:2,_ZN3mde8FunctionILi9EEC2Ed
FNDA:1138540,_ZZN3mde9SetValuesINS_7CEC20063F23EE15equalitiesValueIS2_Li0EEEdRKNS_4help6VectorILm9EEEENKUlddE_clEdd
FNDA:12320,_ZN3mde9SetValuesINS_7CEC20062F5EEclERNS_4help6VectorILm4EEE
FNDA:1499940,_ZZN3mde9SetValuesINS_7CEC20063F13EE15equalitiesValueIS2_Li0EEEdRKNS_4help6VectorILm5EEEENKUlddE_clEdd
FNDA:1,_ZN3mde8FunctionILi15EEC2Eddd
FNDA:0,_ZZN3mde9SetValuesINS_7CEC20063F17EE17inequalitiesValueIS2_Li0EEEdRKNS_4help6VectorILm6EEEENKUlddE_clEdd
FNDA:499980,_ZN3mde9SetValuesINS_7CEC20063F21EE15equalitiesValueIS2_Li0EEEdRKNS_4help6VectorILm7EEE
FNDA:499980,_ZN3mde9SetValuesINS_7CEC20063F13EE15equalitiesValueIS2_Li0EEEdRKNS_4help6VectorILm5EEE
FNDA:6505,_ZN3mde9SetValuesINS_7CEC20063F16EE15equalitiesValueIS2_Li0EEEdRKNS_4help6VectorILm5EEE
FNDA:0,_ZZN3mde9SetValuesINS_7CEC20062F2EE15equalitiesValueIS2_Li0EEEdRKNS_4help6VectorILm20EEEENKUlddE_clEdd
FNDA:1499940,_ZZN3mde9SetValuesINS_7CEC20063F14EE15equalitiesValueIS2_Li0EEEdRKNS_4help6VectorILm10EEEENKUlddE_clEdd
FNDA:34430,_ZN3mde9SetValuesINS_7CEC20063F18EE17inequalitiesValueIS2_Li0EEEdRKNS_4help6VectorILm9EEE
FNDA:16115,_ZN3mde9SetValuesINS_7CEC20062F1EE15equalitiesValueIS2_Li0EEEdRKNS_4help6VectorILm13EEE
FNDA:0,_ZZN3mde9SetValuesINS_7CEC20062F1EE15equalitiesValueIS2_Li0EEEdRKNS_4help6VectorILm13EEEENKUlddE_clEdd
FNDA:1,_ZN3mde9SetValuesINS_7CEC20063F22EEC2EdRKS2_
FNDA:9210,_ZN3mde9SetValuesINS_7CEC20062F4EEclERNS_4help6VectorILm5EEE
FNDA:6505,_ZN3mde9SetValuesINS_7CEC20063F16EE17inequalitiesValueIS2_Li0EEEdRKNS_4help6VectorILm5EEE
FNDA:0,_ZZN3mde9SetValuesINS_7CEC20062F4EE15equalitiesValueIS2_Li0EEEdRKNS_4help6VectorILm5EEEENKUlddE_clEdd
FNDA:1,_ZN3mde8FunctionILi20EEC2Eddd
FNDA:284635,_ZN3mde9SetValuesINS_7CEC20063F23EE17inequalitiesValueIS2_Li0EEEdRKNS_4help6VectorILm9EEE
FNDA:499980,_ZN3mde9SetValuesINS_7CEC20063F21EEclERNS_4help6VectorILm7EEE
FNDA:158600,_ZN3mde9SetValuesINS_7CEC20063F17EE15equalitiesValueIS2_Li0EEEdRKNS_4help6VectorILm6EEE
FNDA:569270,_ZZN3mde9SetValuesINS_7CEC20063F23EE17inequalitiesValueIS2_Li0EEEdRKNS_4help6VectorILm9EEEENKUlddE_clEdd
FNDA:908340,_ZZN3mde9SetValuesINS_7CEC20063F10EE17inequalitiesValueIS2_Li0EEEdRKNS_4help6VectorILm8EEEENKUlddE_clEdd
FNDA:36960,_ZZN3mde9SetValuesINS_7CEC20062F5EE15equalitiesValueIS2_Li0EEEdRKNS_4help6VectorILm4EEEENKUlddE_clEdd
FNDA:8735,_ZN3mde9SetValuesINS_7CEC20063F15EE15equalitiesValueIS2_Li0EEEdRKNS_4help6VectorILm3EEE
FNDA:0,_ZZN3mde9SetValuesINS_7CEC20063F10EE15equalitiesValueIS2_Li0EEEdRKNS_4help6VectorILm8EEEENKUlddE_clEdd
FNDA:2,_ZN3mde8FunctionILi2EEC2Eddd
FNDA:0,_ZZN3mde9SetValuesINS_7CEC20063F24EE15equalitiesValueIS2_Li0EEEdRKNS_4help6VectorILm2EEEENKUlddE_clEdd
FNDA:1,_ZN3mde9SetValuesINS_7CEC20062F8EEC2EdRKS2_
FNDA:1,_ZN3mde8FunctionILi6EEC2Ed
FNDA:34430,_ZN3mde9SetValuesINS_7CEC20063F18EE15equalitiesValueIS2_Li0EEEdRKNS_4help6VectorILm9EEE
FNDA:1,_ZN3mde9SetValuesINS_7CEC20063F16EEC2EdRKS2_
FNDA:3,_ZN3mde8FunctionILi10EEC2Eiddd
FNDA:158600,_ZN3mde9SetValuesINS_7CEC20063F17EE17inequalitiesValueIS2_Li0EEEdRKNS_4help6VectorILm6EEE
FNDA:1,_ZN3mde8FunctionILi8EEC2Ed
FNDA:0,_ZZN3mde9SetValuesINS_7CEC20062F6EE15equalitiesValueIS2_Li0EEEdRKNS_4help6VectorILm2EEEENKUlddE_clEdd
FNDA:499980,_ZN3mde9SetValuesIN12_GLOBAL__N_115ConstRosenbrockEE17inequalitiesValueIS2_Li0EEEdRKNS_4help6VectorILm0EEE
FNDA:4080,_ZZN3mde9SetValuesINS_7CEC20063F24EE17inequalitiesValueIS2_Li0EEEdRKNS_4help6VectorILm2EEEENKUlddE_clEdd
FNDA:18490,_ZZN3mde9SetValuesINS_7CEC20062F6EE17inequalitiesValueIS2_Li0EEEdRKNS_4help6VectorILm2EEEENKUlddE_clEdd
FNDA:499980,_ZN3mde9SetValuesINS_7CEC20062F2EEclERNS_4help6VectorILm20EEE
FNDA:2,_ZN3mde8FunctionILi2EEC2Eiddd
FNDA:12320,_ZN3mde9SetValuesINS_7CEC20062F5EE15equalitiesValueIS2_Li0EEEdRKNS_4help6VectorILm4EEE
FNDA:499980,_ZN3mde9SetValuesINS_7CEC20062F2EE17inequalitiesValueIS2_Li0EEEdRKNS_4help6VectorILm20EEE
FNDA:1,_ZN3mde9SetValuesIN12_GLOBAL__N_115ConstRosenbrockEEC2EdRKS2_
FNDA:1,_ZN3mde9SetValuesINS_7CEC20062F1EEC2EdRKS2_
FNDA:0,_ZZN3mde9SetValuesINS_7CEC20062F9EE15equalitiesValueIS2_Li0EEEdRKNS_4help6VectorILm7EEEENKUlddE_clEdd
FNDA:1,_ZN3mde8FunctionILi7EEC2Ed
FNDA:1105,_ZN3mde9SetValuesINS_7CEC20062F8EE17inequalitiesValueIS2_Li0EEEdRKNS_4help6VectorILm2EEE
FNDA:1,_ZN3mde9SetValuesINS_7CEC20062F9EEC2EdRKS2_
FNDA:9945,_ZN3mde9SetValuesINS_7CEC20062F9EE17inequalitiesValueIS2_Li0EEEdRKNS_4help6VectorILm7EEE
FNDA:8735,_ZN3mde9SetValuesINS_7CEC20063F15EE17inequalitiesValueIS2_Li0EEEdRKNS_4help6VectorILm3EEE
FNDA:0,_ZZN3mde9SetValuesINS_7CEC20062F7EE15equalitiesValueIS2_Li0EEEdRKNS_4help6VectorILm10EEEENKUlddE_clEdd
FNDA:9945,_ZN3mde9SetValuesINS_7CEC20062F9EEclERNS_4help6VectorILm7EEE
FNDA:151390,_ZN3mde9SetValuesINS_7CEC20063F10EEclERNS_4help6VectorILm8EEE
FNDA:499980,_ZN3mde9SetValuesIN12_GLOBAL__N_110RosenbrockEE17inequalitiesValueIS2_Li0EEEdRKNS_4help6VectorILm0EEE
FNDA:34430,_ZN3mde9SetValuesINS_7CEC20063F18EEclERNS_4help6VectorILm9EEE
FNDA:6,_ZN3mde8FunctionILi0EED2Ev
FNDA:197630,_ZN3mde9SetValuesINS_7CEC20062F7EEclERNS_4help6VectorILm10EEE
FNDA:634400,_ZZN3mde9SetValuesINS_7CEC20063F17EE15equalitiesValueIS2_Li0EEEdRKNS_4help6VectorILm6EEEENKUlddE_clEdd
FNDA:2999880,_ZZN3mde9SetValuesINS_7CEC20063F20EE17inequalitiesValueIS2_Li0EEEdRKNS_4help6VectorILm24EEEENKUlddE_clEdd
FNDA:197630,_ZN3mde9SetValuesINS_7CEC20062F7EE15equalitiesValueIS2_Li0EEEdRKNS_4help6VectorILm10EEE
FNDA:999960,_ZNK3mde8FunctionILi0EE12inequalitiesERKNS_4help6VectorILm0EEE
FNDA:2040,_ZN3mde9SetValuesINS_7CEC20063F24EEclERNS_4help6VectorILm2EEE
FNDA:3,_ZN3mde8FunctionILi0EEC2ERKS1_
FNDA:2040,_ZN3mde9SetValuesINS_7CEC20063F24EE17inequalitiesValueIS2_Li0EEEdRKNS_4help6VectorILm2EEE
FNDA:999960,_ZZN3mde9SetValuesINS_7CEC20062F2EE17inequalitiesValueIS2_Li0EEEdRKNS_4help6VectorILm20EEEENKUlddE_clEdd
FNDA:499980,_ZN3mde9SetValuesIN12_GLOBAL__N_110RosenbrockEEclERNS_4help6VectorILm0EEE
FNDA:1425,_ZN3mde9SetValuesINS_7CEC20063F12EE17inequalitiesValueIS2_Li0EEEdRKNS_4help6VectorILm3EEE
FNDA:1,_ZN3mde9SetValuesINS_7CEC20062F7EEC2EdRKS2_
FNDA:1,_ZN3mde9SetValuesINS_7CEC20063F19EEC2EdRKS2_
FNDA:12320,_ZN3mde9SetValuesINS_7CEC20062F5EE17inequalitiesValueIS2_Li0EEEdRKNS_4help6VectorILm4EEE
FNDA:499980,_ZN3mde9SetValuesIN12_GLOBAL__N_115ConstRosenbrockEEclERNS_4help6VectorILm0EEE
FNDA:9245,_ZN3mde9SetValuesINS_7CEC20062F6EE15equalitiesValueIS2_Li0EEEdRKNS_4help6VectorILm2EEE
FNDA:6505,_ZN3mde9SetValuesINS_7CEC20063F16EEclERNS_4help6VectorILm5EEE
FNDA:499980,_ZN3mde9SetValuesINS_7CEC20063F20EEclERNS_4help6VectorILm24EEE
FNDA:284635,_ZN3mde9SetValuesINS_7CEC20063F23EEclERNS_4help6VectorILm9EEE
FNDA:0,_ZZN3mde9SetValuesINS_7CEC20063F18EE15equalitiesValueIS2_Li0EEEdRKNS_4help6VectorILm9EEEENKUlddE_clEdd
FNDA:39780,_ZZN3mde9SetValuesINS_7CEC20062F9EE17inequalitiesValueIS2_Li0EEEdRKNS_4help6VectorILm7EEEENKUlddE_clEdd
FNDA:3,_ZN3mde8FunctionILi0EEC2Ed
FNDA:0,_ZZN3mde9SetValuesINS_7CEC20062F8EE15equalitiesValueIS2_Li0EEEdRKNS_4help6VectorILm2EEEENKUlddE_clEdd
FNDA:1,_ZN3mde8FunctionILi24EEC2Eiddd
FNDA:499980,_ZN3mde9SetValuesINS_7CEC20063F21EE17inequalitiesValueIS2_Li0EEEdRKNS_4help6VectorILm7EEE
FNDA:1,_ZN3mde8FunctionILi4EEC2Ed
FNDA:197630,_ZN3mde9SetValuesINS_7CEC20062F7EE17inequalitiesValueIS2_Li0EEEdRKNS_4help6VectorILm10EEE
FNDA:284635,_ZN3mde9SetValuesINS_7CEC20063F23EE15equalitiesValueIS2_Li0EEEdRKNS_4help6VectorILm9EEE
FNDA:0,_ZZN3mde9SetValuesINS_7CEC20063F16EE15equalitiesValueIS2_Li0EEEdRKNS_4help6VectorILm5EEEENKUlddE_clEdd
FNDA:1105,_ZN3mde9SetValuesINS_7CEC20062F8EE15equalitiesValueIS2_Li0EEEdRKNS_4help6VectorILm2EEE
FNDA:1,_ZN3mde9SetValuesINS_7CEC20063F24EEC2EdRKS2_
FNF:187
FNH:168
DA:29,9
DA:36,16
DA:37,16
DA:46,11
DA:50,11
DA:51,11
DA:53,11
DA:54,11
DA:55,11
DA:76,1499940
DA:78,1499940
DA:81,999960
DA:83,999960
DA:114,3
DA:125,27
DA:134,5468280
DA:136,5468280
DA:138,5468280
DA:140,5468280
DA:163,1499940
DA:165,1499940
DA:185,1499940
DA:187,1499940
DA:189,1499940
DA:198,3968340
DA:200,3968340
DA:202,15047140
DA:204,22157600
DA:205,26125940
DA:212,3968340
DA:214,3968340
DA:216,17412475
DA:217,13444135
DA:218,26888270
DA:219,17412475
LF:35
LH:35
end_of_record
TN:
SF:/home/matheus/Algoritmos/MDE/include/MDE/MDE.h
FN:42,_ZN3mde10ParametersD2Ev
FN:42,_ZN3mde10ParametersC2ERKS0_
FN:44,_ZN3mde10ParametersC2EidddddiidNSt7__cxx1112basic_stringIcSt11char_traitsIcESaIcEEE
FN:100,_ZN3mde3MDEINS_7CEC20062F3EED2Ev
FN:100,_ZN3mde3MDEINS_7CEC20063F13EED2Ev
FN:100,_ZN3mde3MDEINS_7CEC20063F19EED2Ev
FN:100,_ZN3mde3MDEINS_7CEC20063F11EED2Ev
FN:100,_ZN3mde3MDEINS_7CEC20062F9EED2Ev
FN:100,_ZN3mde3MDEIN12_GLOBAL__N_16AckleyEED2Ev
FN:100,_ZN3mde3MDEINS_7CEC20063F20EED2Ev
FN:100,_ZN3mde3MDEIN12_GLOBAL__N_115ConstRosenbrockEED2Ev
FN:100,_ZN3mde3MDEIN12_GLOBAL__N_110RosenbrockEED2Ev
FN:100,_ZN3mde3MDEINS_7CEC20063F16EED2Ev
FN:100,_ZN3mde3MDEINS_7CEC20062F2EED2Ev
FN:100,_ZN3mde3MDEINS_7CEC20063F24EED2Ev
FN:100,_ZN3mde3MDEINS_7CEC20063F23EED2Ev
FN:100,_ZN3mde3MDEINS_7CEC20062F6EED2Ev
FN:100,_ZN3mde3MDEINS_7CEC20063F21EED2Ev
FN:100,_ZN3mde3MDEINS_7CEC20063F17EED2Ev
FN:100,_ZN3mde3MDEINS_7CEC20063F22EED2Ev
FN:100,_ZN3mde3MDEINS_7CEC20063F18EED2Ev
FN:100,_ZN3mde3MDEINS_7CEC20063F12EED2Ev
FN:100,_ZN3mde3MDEINS_7CEC20062F8EED2Ev
FN:100,_ZN3mde3MDEINS_7CEC20062F7EED2Ev
FN:100,_ZN3mde3MDEINS_7CEC20063F14EED2Ev
FN:100,_ZN3mde3MDEINS_7CEC20062F4EED2Ev
FN:100,_ZN3mde3MDEINS_7CEC20062F5EED2Ev
FN:100,_ZN3mde3MDEINS_7CEC20063F10EED2Ev
FN:100,_ZN3mde3MDEINS_7CEC20063F15EED2Ev
FN:100,_ZN3mde3MDEINS_7CEC20062F1EED2Ev
FN:114,_ZN3mde3MDEINS_7CEC20063F17EEC2ERKNS_10ParametersERKS2_
FN:114,_ZN3mde3MDEIN12_GLOBAL__N_16AckleyEEC2ERKNS_10ParametersERKS2_
FN:114,_ZN3mde3MDEINS_7CEC20063F18EEC2ERKNS_10ParametersERKS2_
FN:114,_ZN3mde3MDEINS_7CEC20063F10EEC2ERKNS_10ParametersERKS2_
FN:114,_ZN3mde3MDEINS_7CEC20063F13EEC2ERKNS_10ParametersERKS2_
FN:114,_ZN3mde3MDEINS_7CEC20063F16EEC2ERKNS_10ParametersERKS2_
FN:114,_ZN3mde3MDEIN12_GLOBAL__N_115ConstRosenbrockEEC2ERKNS_10ParametersERKS2_
FN:114,_ZN3mde3MDEINS_7CEC20062F3EEC2ERKNS_10ParametersERKS2_
FN:114,_ZN3mde3MDEINS_7CEC20063F12EEC2ERKNS_10ParametersERKS2_
FN:114,_ZN3mde3MDEIN12_GLOBAL__N_110RosenbrockEEC2ERKNS_10ParametersERKS2_
FN:114,_ZN3mde3MDEINS_7CEC20063F23EEC2ERKNS_10ParametersERKS2_
FN:114,_ZN3mde3MDEINS_7CEC20063F24EEC2ERKNS_10ParametersERKS2_
FN:114,_ZN3mde3MDEINS_7CEC20063F15EEC2ERKNS_10ParametersERKS2_
FN:114,_ZN3mde3MDEINS_7CEC20063F11EEC2ERKNS_10ParametersERKS2_
FN:114,_ZN3mde3MDEINS_7CEC20063F14EEC2ERKNS_10ParametersERKS2_
FN:114,_ZN3mde3MDEINS_7CEC20062F4EEC2ERKNS_10ParametersERKS2_
FN:114,_ZN3mde3MDEINS_7CEC20062F6EEC2ERKNS_10ParametersERKS2_
FN:114,_ZN3mde3MDEINS_7CEC20062F9EEC2ERKNS_10ParametersERKS2_
FN:114,_ZN3mde3MDEINS_7CEC20063F21EEC2ERKNS_10ParametersERKS2_
FN:114,_ZN3mde3MDEINS_7CEC20063F22EEC2ERKNS_10ParametersERKS2_
FN:114,_ZN3mde3MDEINS_7CEC20062F8EEC2ERKNS_10ParametersERKS2_
FN:114,_ZN3mde3MDEINS_7CEC20062F2EEC2ERKNS_10ParametersERKS2_
FN:114,_ZN3mde3MDEINS_7CEC20063F19EEC2ERKNS_10ParametersERKS2_
FN:114,_ZN3mde3MDEINS_7CEC20062F7EEC2ERKNS_10ParametersERKS2_
FN:114,_ZN3mde3MDEINS_7CEC20063F20EEC2ERKNS_10ParametersERKS2_
FN:114,_ZN3mde3MDEINS_7CEC20062F5EEC2ERKNS_10ParametersERKS2_
FN:114,_ZN3mde3MDEINS_7CEC20062F1EEC2ERKNS_10ParametersERKS2_
FN:132,_ZN3mde3MDEINS_7CEC20063F13EEclEv
FN:132,_ZN3mde3MDEINS_7CEC20062F4EEclEv
FN:132,_ZN3mde3MDEINS_7CEC20063F24EEclEv
FN:132,_ZN3mde3MDEIN12_GLOBAL__N_115ConstRosenbrockEEclEv
FN:132,_ZN3mde3MDEINS_7CEC20062F2EEclEv
FN:132,_ZN3mde3MDEINS_7CEC20063F12EEclEv
FN:132,_ZN3mde3MDEINS_7CEC20062F7EEclEv
FN:132,_ZN3mde3MDEINS_7CEC20063F16EEclEv
FN:132,_ZN3mde3MDEINS_7CEC20063F19EEclEv
FN:132,_ZN3mde3MDEIN12_GLOBAL__N_110RosenbrockEEclEv
FN:132,_ZN3mde3MDEINS_7CEC20063F11EEclEv
FN:132,_ZN3mde3MDEINS_7CEC20063F10EEclEv
FN:132,_ZN3mde3MDEINS_7CEC20063F21EEclEv
FN:132,_ZN3mde3MDEINS_7CEC20063F18EEclEv
FN:132,_ZN3mde3MDEINS_7CEC20063F23EEclEv
FN:132,_ZN3mde3MDEINS_7CEC20063F22EEclEv
FN:132,_ZN3mde3MDEINS_7CEC20063F15EEclEv
FN:132,_ZN3mde3MDEINS_7CEC20062F8EEclEv
FN:132,_ZN3mde3MDEINS_7CEC20062F6EEclEv
FN:132,_ZN3mde3MDEINS_7CEC20063F14EEclEv
FN:132,_ZN3mde3MDEINS_7CEC20062F3EEclEv
FN:132,_ZN3mde3MDEINS_7CEC20063F20EEclEv
FN:132,_ZN3mde3MDEINS_7CEC20062F1EEclEv
FN:132,_ZN3mde3MDEINS_7CEC20062F9EEclEv
FN:132,_ZN3mde3MDEINS_7CEC20062F5EEclEv
FN:132,_ZN3mde3MDEINS_7CEC20063F17EEclEv
FN:132,_ZN3mde3MDEIN12_GLOBAL__N_16AckleyEEclEv
FN:216,_ZN3mde3MDEINS_7CEC20063F23EE10initializeEv
FN:216,_ZN3mde3MDEINS_7CEC20063F13EE10initializeEv
FN:216,_ZN3mde3MDEINS_7CEC20063F11EE10initializeEv
FN:216,_ZN3mde3MDEINS_7CEC20062F5EE10initializeEv
FN:216,_ZN3mde3MDEINS_7CEC20062F4EE10initializeEv
FN:216,_ZN3mde3MDEINS_7CEC20062F6EE10initializeEv
FN:216,_ZN3mde3MDEINS_7CEC20063F18EE10initializeEv
FN:216,_ZN3mde3MDEINS_7CEC20063F15EE10initializeEv
FN:216,_ZN3mde3MDEINS_7CEC20063F14EE10initializeEv
FN:216,_ZN3mde3MDEINS_7CEC20063F22EE10initializeEv
FN:216,_ZN3mde3MDEINS_7CEC20063F20EE10initializeEv
FN:216,_ZN3mde3MDEINS_7CEC20063F12EE10initializeEv
FN:216,_ZN3mde3MDEINS_7CEC20062F2EE10initializeEv
FN:216,_ZN3mde3MDEINS_7CEC20063F16EE10initializeEv
FN:216,_ZN3mde3MDEINS_7CEC20062F1EE10initializeEv
FN:216,_ZN3mde3MDEINS_7CEC20062F8EE10initializeEv
FN:216,_ZN3mde3MDEINS_7CEC20063F24EE10initializeEv
FN:216,_ZN3mde3MDEIN12_GLOBAL__N_16AckleyEE10initializeEv
FN:216,_ZN3mde3MDEINS_7CEC20062F3EE10initializeEv
FN:216,_ZN3mde3MDEIN12_GLOBAL__N_110RosenbrockEE10initializeEv
FN:216,_ZN3mde3MDEINS_7CEC20063F10EE10initializeEv
FN:216,_ZN3mde3MDEINS_7CEC20063F21EE10initializeEv
FN:216,_ZN3mde3MDEINS_7CEC20063F17EE10initializeEv
FN:216,_ZN3mde3MDEINS_7CEC20063F19EE10initializeEv
FN:216,_ZN3mde3MDEINS_7CEC20062F7EE10initializeEv
FN:216,_ZN3mde3MDEINS_7CEC20062F9EE10initializeEv
FN:216,_ZN3mde3MDEIN12_GLOBAL__N_115ConstRosenbrockEE10initializeEv
FN:275,_ZN3mde3MDEINS_7CEC20063F11EE9newVectorEv
FN:275,_ZN3mde3MDEINS_7CEC20063F18EE9newVectorEv
FN:275,_ZN3mde3MDEINS_7CEC20063F14EE9newVectorEv
FN:275,_ZN3mde3MDEINS_7CEC20062F9EE9newVectorEv
FN:275,_ZN3mde3MDEINS_7CEC20062F7EE9newVectorEv
FN:275,_ZN3mde3MDEINS_7CEC20062F5EE9newVectorEv
FN:275,_ZN3mde3MDEINS_7CEC20062F1EE9newVectorEv
FN:275,_ZN3mde3MDEIN12_GLOBAL__N_16AckleyEE9newVectorEv
FN:275,_ZN3mde3MDEINS_7CEC20063F20EE9newVectorEv
FN:275,_ZN3mde3MDEINS_7CEC20062F2EE9newVectorEv
FN:275,_ZN3mde3MDEINS_7CEC20063F10EE9newVectorEv
FN:275,_ZN3mde3MDEINS_7CEC20063F13EE9newVectorEv
FN:275,_ZN3mde3MDEINS_7CEC20063F21EE9newVectorEv
FN:275,_ZN3mde3MDEINS_7CEC20063F22EE9newVectorEv
FN:275,_ZN3mde3MDEIN12_GLOBAL__N_115ConstRosenbrockEE9newVectorEv
FN:275,_ZN3mde3MDEINS_7CEC20063F24EE9newVectorEv
FN:275,_ZN3mde3MDEINS_7CEC20063F15EE9newVectorEv
FN:275,_ZN3mde3MDEINS_7CEC20063F12EE9newVectorEv
FN:275,_ZN3mde3MDEINS_7CEC20063F16EE9newVectorEv
FN:275,_ZN3mde3MDEINS_7CEC20062F4EE9newVectorEv
FN:275,_ZN3mde3MDEINS_7CEC20063F19EE9newVectorEv
FN:275,_ZN3mde3MDEIN12_GLOBAL__N_110RosenbrockEE9newVectorEv
FN:275,_ZN3mde3MDEINS_7CEC20062F8EE9newVectorEv
FN:275,_ZN3mde3MDEINS_7CEC20063F23EE9newVectorEv
FN:275,_ZN3mde3MDEINS_7CEC20063F17EE9newVectorEv
FN:275,_ZN3mde3MDEINS_7CEC20062F3EE9newVectorEv
FN:275,_ZN3mde3MDEINS_7CEC20062F6EE9newVectorEv
FN:289,_ZN3mde3MDEINS_7CEC20063F23EE20differentialMutationERKNS_4help6VectorILm9EEES8_S8_S8_
FN:289,_ZN3mde3MDEINS_7CEC20062F3EE20differentialMutationERKNS_4help6VectorILm10EEES8_S8_S8_
FN:289,_ZN3mde3MDEINS_7CEC20062F1EE20differentialMutationERKNS_4help6VectorILm13EEES8_S8_S8_
FN:289,_ZN3mde3MDEINS_7CEC20063F10EE20differentialMutationERKNS_4help6VectorILm8EEES8_S8_S8_
FN:289,_ZN3mde3MDEINS_7CEC20062F7EE20differentialMutationERKNS_4help6VectorILm10EEES8_S8_S8_
FN:289,_ZN3mde3MDEINS_7CEC20063F18EE20differentialMutationERKNS_4help6VectorILm9EEES8_S8_S8_
FN:289,_ZN3mde3MDEIN12_GLOBAL__N_110RosenbrockEE20differentialMutationERKNS_4help6VectorILm0EEES8_S8_S8_
FN:289,_ZN3mde3MDEINS_7CEC20063F12EE20differentialMutationERKNS_4help6VectorILm3EEES8_S8_S8_
FN:289,_ZN3mde3MDEINS_7CEC20063F20EE20differentialMutationERKNS_4help6VectorILm24EEES8_S8_S8_
FN:289,_ZN3mde3MDEINS_7CEC20062F2EE20differentialMutationERKNS_4help6VectorILm20EEES8_S8_S8_
FN:289,_ZN3mde3MDEINS_7CEC20063F24EE20differentialMutationERKNS_4help6VectorILm2EEES8_S8_S8_
FN:289,_ZN3mde3MDEINS_7CEC20062F5EE20differentialMutationERKNS_4help6VectorILm4EEES8_S8_S8_
FN:289,_ZN3mde3MDEINS_7CEC20063F13EE20differentialMutationERKNS_4help6VectorILm5EEES8_S8_S8_
FN:289,_ZN3mde3MDEINS_7CEC20063F19EE20differentialMutationERKNS_4help6VectorILm15EEES8_S8_S8_
FN:289,_ZN3mde3MDEIN12_GLOBAL__N_16AckleyEE20differentialMutationERKNS_4help6VectorILm0EEES8_S8_S8_
FN:289,_ZN3mde3MDEINS_7CEC20063F16EE20differentialMutationERKNS_4help6VectorILm5EEES8_S8_S8_
FN:289,_ZN3mde3MDEINS_7CEC20062F9EE20differentialMutationERKNS_4help6VectorILm7EEES8_S8_S8_
FN:289,_ZN3mde3MDEINS_7CEC20062F6EE20differentialMutationERKNS_4help6VectorILm2EEES8_S8_S8_
FN:289,_ZN3mde3MDEINS_7CEC20063F22EE20differentialMutationERKNS_4help6VectorILm22EEES8_S8_S8_
FN:289,_ZN3mde3MDEINS_7CEC20063F14EE20differentialMutationERKNS_4help6VectorILm10EEES8_S8_S8_
FN:289,_ZN3mde3MDEINS_7CEC20063F15EE20differentialMutationERKNS_4help6VectorILm3EEES8_S8_S8_
FN:289,_ZN3mde3MDEIN12_GLOBAL__N_115ConstRosenbrockEE20differentialMutationERKNS_4help6VectorILm0EEES8_S8_S8_
FN:289,_ZN3mde3MDEINS_7CEC20063F17EE20differentialMutationERKNS_4help6VectorILm6EEES8_S8_S8_
FN:289,_ZN3mde3MDEINS_7CEC20062F8EE20differentialMutationERKNS_4help6VectorILm2EEES8_S8_S8_
FN:289,_ZN3mde3MDEINS_7CEC20063F21EE20differentialMutationERKNS_4help6VectorILm7EEES8_S8_S8_
FN:289,_ZN3mde3MDEINS_7CEC20062F4EE20differentialMutationERKNS_4help6VectorILm5EEES8_S8_S8_
FN:289,_ZN3mde3MDEINS_7CEC20063F11EE20differentialMutationERKNS_4help6VectorILm2EEES8_S8_S8_
FN:318,_ZN3mde3MDEINS_7CEC20062F7EE12withinBoundsEdi
FN:318,_ZN3mde3MDEINS_7CEC20063F11EE12withinBoundsEdi
FN:318,_ZN3mde3MDEINS_7CEC20062F5EE12withinBoundsEdi
FN:318,_ZN3mde3MDEINS_7CEC20062F9EE12withinBoundsEdi
FN:318,_ZN3mde3MDEINS_7CEC20063F19EE12withinBoundsEdi
FN:318,_ZN3mde3MDEINS_7CEC20063F15EE12withinBoundsEdi
FN:318,_ZN3mde3MDEINS_7CEC20063F21EE12withinBoundsEdi
FN:318,_ZN3mde3MDEINS_7CEC20063F14EE12withinBoundsEdi
FN:318,_ZN3mde3MDEINS_7CEC20063F16EE12withinBoundsEdi
FN:318,_ZN3mde3MDEINS_7CEC20063F20EE12withinBoundsEdi
FN:318,_ZN3mde3MDEINS_7CEC20063F12EE12withinBoundsEdi
FN:318,_ZN3mde3MDEINS_7CEC20063F10EE12withinBoundsEdi
FN:318,_ZN3mde3MDEIN12_GLOBAL__N_16AckleyEE12withinBoundsEdi
FN:318,_ZN3mde3MDEINS_7CEC20062F4EE12withinBoundsEdi
FN:318,_ZN3mde3MDEINS_7CEC20063F24EE12withinBoundsEdi
FN:318,_ZN3mde3MDEIN12_GLOBAL__N_110RosenbrockEE12withinBoundsEdi
FN:318,_ZN3mde3MDEINS_7CEC20063F23EE12withinBoundsEdi
FN:318,_ZN3mde3MDEIN12_GLOBAL__N_115ConstRosenbrockEE12withinBoundsEdi
FN:318,_ZN3mde3MDEINS_7CEC20063F22EE12withinBoundsEdi
FN:318,_ZN3mde3MDEINS_7CEC20062F8EE12withinBoundsEdi
FN:318,_ZN3mde3MDEINS_7CEC20063F13EE12withinBoundsEdi
FN:318,_ZN3mde3MDEINS_7CEC20062F1EE12withinBoundsEdi
FN:318,_ZN3mde3MDEINS_7CEC20062F6EE12withinBoundsEdi
FN:318,_ZN3mde3MDEINS_7CEC20062F2EE12withinBoundsEdi
FN:318,_ZN3mde3MDEINS_7CEC20063F17EE12withinBoundsEdi
FN:318,_ZN3mde3MDEINS_7CEC20062F3EE12withinBoundsEdi
FN:318,_ZN3mde3MDEINS_7CEC20063F18EE12withinBoundsEdi
FN:324,_ZN3mde3MDEINS_7CEC20063F12EE12withinBoundsERKNS_4help6VectorILm3EEE
FN:324,_ZN3mde3MDEINS_7CEC20063F23EE12withinBoundsERKNS_4help6VectorILm9EEE
FN:324,_ZN3mde3MDEINS_7CEC20063F15EE12withinBoundsERKNS_4help6VectorILm3EEE
FN:324,_ZN3mde3MDEINS_7CEC20063F11EE12withinBoundsERKNS_4help6VectorILm2EEE
FN:324,_ZN3mde3MDEINS_7CEC20063F22EE12withinBoundsERKNS_4help6VectorILm22EEE
FN:324,_ZN3mde3MDEIN12_GLOBAL__N_115ConstRosenbrockEE12withinBoundsERKNS_4help6VectorILm0EEE
FN:324,_ZN3mde3MDEINS_7CEC20063F16EE12withinBoundsERKNS_4help6VectorILm5EEE
FN:324,_ZN3mde3MDEINS_7CEC20062F1EE12withinBoundsERKNS_4help6VectorILm13EEE
FN:324,_ZN3mde3MDEIN12_GLOBAL__N_110RosenbrockEE12withinBoundsERKNS_4help6VectorILm0EEE
FN:324,_ZN3mde3MDEINS_7CEC20063F13EE12withinBoundsERKNS_4help6VectorILm5EEE
FN:324,_ZN3mde3MDEINS_7CEC20062F4EE12withinBoundsERKNS_4help6VectorILm5EEE
FN:324,_ZN3mde3MDEINS_7CEC20063F17EE12withinBoundsERKNS_4help6VectorILm6EEE
FN:324,_ZN3mde3MDEINS_7CEC20063F19EE12withinBoundsERKNS_4help6VectorILm15EEE
FN:324,_ZN3mde3MDEINS_7CEC20063F21EE12withinBoundsERKNS_4help6VectorILm7EEE
FN:324,_ZN3mde3MDEINS_7CEC20062F8EE12withinBoundsERKNS_4help6VectorILm2EEE
FN:324,_ZN3mde3MDEINS_7CEC20062F3EE12withinBoundsERKNS_4help6VectorILm10EEE
FN:324,_ZN3mde3MDEINS_7CEC20063F14EE12withinBoundsERKNS_4help6VectorILm10EEE
FN:324,_ZN3mde3MDEINS_7CEC20063F10EE12withinBoundsERKNS_4help6VectorILm8EEE
FN:324,_ZN3mde3MDEINS_7CEC20063F20EE12withinBoundsERKNS_4help6VectorILm24EEE
FN:324,_ZN3mde3MDEINS_7CEC20063F18EE12withinBoundsERKNS_4help6VectorILm9EEE
FN:324,_ZN3mde3MDEIN12_GLOBAL__N_16AckleyEE12withinBoundsERKNS_4help6VectorILm0EEE
FN:324,_ZN3mde3MDEINS_7CEC20062F9EE12withinBoundsERKNS_4help6VectorILm7EEE
FN:324,_ZN3mde3MDEINS_7CEC20063F24EE12withinBoundsERKNS_4help6VectorILm2EEE
FN:324,_ZN3mde3MDEINS_7CEC20062F2EE12withinBoundsERKNS_4help6VectorILm20EEE
FN:324,_ZN3mde3MDEINS_7CEC20062F5EE12withinBoundsERKNS_4help6VectorILm4EEE
FN:324,_ZN3mde3MDEINS_7CEC20062F7EE12withinBoundsERKNS_4help6VectorILm10EEE
FN:324,_ZN3mde3MDEINS_7CEC20062F6EE12withinBoundsERKNS_4help6VectorILm2EEE
FN:336,_ZN3mde3MDEINS_7CEC20063F23EE9convergedERKNS_4help6VectorILm9EEE
FN:336,_ZN3mde3MDEINS_7CEC20063F14EE9convergedERKNS_4help6VectorILm10EEE
FN:336,_ZN3mde3MDEINS_7CEC20063F12EE9convergedERKNS_4help6VectorILm3EEE
FN:336,_ZN3mde3MDEIN12_GLOBAL__N_110RosenbrockEE9convergedERKNS_4help6VectorILm0EEE
FN:336,_ZN3mde3MDEINS_7CEC20063F13EE9convergedERKNS_4help6VectorILm5EEE
FN:336,_ZN3mde3MDEINS_7CEC20062F2EE9convergedERKNS_4help6VectorILm20EEE
FN:336,_ZN3mde3MDEINS_7CEC20063F22EE9convergedERKNS_4help6VectorILm22EEE
FN:336,_ZN3mde3MDEIN12_GLOBAL__N_115ConstRosenbrockEE9convergedERKNS_4help6VectorILm0EEE
FN:336,_ZN3mde3MDEINS_7CEC20062F7EE9convergedERKNS_4help6VectorILm10EEE
FN:336,_ZN3mde3MDEINS_7CEC20063F11EE9convergedERKNS_4help6VectorILm2EEE
FN:336,_ZN3mde3MDEINS_7CEC20063F19EE9convergedERKNS_4help6VectorILm15EEE
FN:336,_ZN3mde3MDEINS_7CEC20062F6EE9convergedERKNS_4help6VectorILm2EEE
FN:336,_ZN3mde3MDEINS_7CEC20063F17EE9convergedERKNS_4help6VectorILm6EEE
FN:336,_ZN3mde3MDEINS_7CEC20062F4EE9convergedERKNS_4help6VectorILm5EEE
FN:336,_ZN3mde3MDEINS_7CEC20063F10EE9convergedERKNS_4help6VectorILm8EEE
FN:336,_ZN3mde3MDEINS_7CEC20062F8EE9convergedERKNS_4help6VectorILm2EEE
FN:336,_ZN3mde3MDEIN12_GLOBAL__N_16AckleyEE9convergedERKNS_4help6VectorILm0EEE
FN:336,_ZN3mde3MDEINS_7CEC20062F1EE9convergedERKNS_4help6VectorILm13EEE
FN:336,_ZN3mde3MDEINS_7CEC20063F20EE9convergedERKNS_4help6VectorILm24EEE
FN:336,_ZN3mde3MDEINS_7CEC20062F5EE9convergedERKNS_4help6VectorILm4EEE
FN:336,_ZN3mde3MDEINS_7CEC20063F16EE9convergedERKNS_4help6VectorILm5EEE
FN:336,_ZN3mde3MDEINS_7CEC20062F3EE9convergedERKNS_4help6VectorILm10EEE
FN:336,_ZN3mde3MDEINS_7CEC20063F18EE9convergedERKNS_4help6VectorILm9EEE
FN:336,_ZN3mde3MDEINS_7CEC20063F15EE9convergedERKNS_4help6VectorILm3EEE
FN:336,_ZN3mde3MDEINS_7CEC20062F9EE9convergedERKNS_4help6VectorILm7EEE
FN:336,_ZN3mde3MDEINS_7CEC20063F21EE9convergedERKNS_4help6VectorILm7EEE
FN:336,_ZN3mde3MDEINS_7CEC20063F24EE9convergedERKNS_4help6VectorILm2EEE
FN:346,_ZN3mde3MDEINS_7CEC20063F17EE10conservateERNS_4help6VectorILm6EEERKS6_
FN:346,_ZN3mde3MDEINS_7CEC20062F1EE10conservateERNS_4help6VectorILm13EEERKS6_
FN:346,_ZN3mde3MDEIN12_GLOBAL__N_16AckleyEE10conservateERNS_4help6VectorILm0EEERKS6_
FN:346,_ZN3mde3MDEINS_7CEC20062F7EE10conservateERNS_4help6VectorILm10EEERKS6_
FN:346,_ZN3mde3MDEIN12_GLOBAL__N_115ConstRosenbrockEE10conservateERNS_4help6VectorILm0EEERKS6_
FN:346,_ZN3mde3MDEINS_7CEC20063F21EE10conservateERNS_4help6VectorILm7EEERKS6_
FN:346,_ZN3mde3MDEINS_7CEC20063F18EE10conservateERNS_4help6VectorILm9EEERKS6_
FN:346,_ZN3mde3MDEINS_7CEC20062F9EE10conservateERNS_4help6VectorILm7EEERKS6_
FN:346,_ZN3mde3MDEINS_7CEC20063F13EE10conservateERNS_4help6VectorILm5EEERKS6_
FN:346,_ZN3mde3MDEIN12_GLOBAL__N_110RosenbrockEE10conservateERNS_4help6VectorILm0EEERKS6_
FN:346,_ZN3mde3MDEINS_7CEC20063F11EE10conservateERNS_4help6VectorILm2EEERKS6_
FN:346,_ZN3mde3MDEINS_7CEC20063F15EE10conservateERNS_4help6VectorILm3EEERKS6_
FN:346,_ZN3mde3MDEINS_7CEC20062F3EE10conservateERNS_4help6VectorILm10EEERKS6_
FN:346,_ZN3mde3MDEINS_7CEC20062F6EE10conservateERNS_4help6VectorILm2EEERKS6_
FN:346,_ZN3mde3MDEINS_7CEC20062F2EE10conservateERNS_4help6VectorILm20EEERKS6_
FN:346,_ZN3mde3MDEINS_7CEC20063F14EE10conservateERNS_4help6VectorILm10EEERKS6_
FN:346,_ZN3mde3MDEINS_7CEC20062F5EE10conservateERNS_4help6VectorILm4EEERKS6_
FN:346,_ZN3mde3MDEINS_7CEC20063F10EE10conservateERNS_4help6VectorILm8EEERKS6_
FN:346,_ZN3mde3MDEINS_7CEC20062F4EE10conservateERNS_4help6VectorILm5EEERKS6_
FN:346,_ZN3mde3MDEINS_7CEC20063F24EE10conservateERNS_4help6VectorILm2EEERKS6_
FN:346,_ZN3mde3MDEINS_7CEC20063F16EE10conservateERNS_4help6VectorILm5EEERKS6_
FN:346,_ZN3mde3MDEINS_7CEC20062F8EE10conservateERNS_4help6VectorILm2EEERKS6_
FN:346,_ZN3mde3MDEINS_7CEC20063F19EE10conservateERNS_4help6VectorILm15EEERKS6_
FN:346,_ZN3mde3MDEINS_7CEC20063F20EE10conservateERNS_4help6VectorILm24EEERKS6_
FN:346,_ZN3mde3MDEINS_7CEC20063F23EE10conservateERNS_4help6VectorILm9EEERKS6_
FN:346,_ZN3mde3MDEINS_7CEC20063F22EE10conservateERNS_4help6VectorILm22EEERKS6_
FN:346,_ZN3mde3MDEINS_7CEC20063F12EE10conservateERNS_4help6VectorILm3EEERKS6_
FN:354,_ZN3mde3MDEIN12_GLOBAL__N_115ConstRosenbrockEE4clipERNS_4help6VectorILm0EEERKS6_
FN:354,_ZN3mde3MDEINS_7CEC20063F15EE4clipERNS_4help6VectorILm3EEERKS6_
FN:354,_ZN3mde3MDEINS_7CEC20062F8EE4clipERNS_4help6VectorILm2EEERKS6_
FN:354,_ZN3mde3MDEINS_7CEC20063F10EE4clipERNS_4help6VectorILm8EEERKS6_
FN:354,_ZN3mde3MDEINS_7CEC20063F18EE4clipERNS_4help6VectorILm9EEERKS6_
FN:354,_ZN3mde3MDEINS_7CEC20063F13EE4clipERNS_4help6VectorILm5EEERKS6_
FN:354,_ZN3mde3MDEINS_7CEC20063F16EE4clipERNS_4help6VectorILm5EEERKS6_
FN:354,_ZN3mde3MDEINS_7CEC20062F6EE4clipERNS_4help6VectorILm2EEERKS6_
FN:354,_ZN3mde3MDEINS_7CEC20062F1EE4clipERNS_4help6VectorILm13EEERKS6_
FN:354,_ZN3mde3MDEINS_7CEC20063F19EE4clipERNS_4help6VectorILm15EEERKS6_
FN:354,_ZN3mde3MDEINS_7CEC20062F5EE4clipERNS_4help6VectorILm4EEERKS6_
FN:354,_ZN3mde3MDEIN12_GLOBAL__N_110RosenbrockEE4clipERNS_4help6VectorILm0EEERKS6_
FN:354,_ZN3mde3MDEINS_7CEC20063F21EE4clipERNS_4help6VectorILm7EEERKS6_
FN:354,_ZN3mde3MDEINS_7CEC20063F14EE4clipERNS_4help6VectorILm10EEERKS6_
FN:354,_ZN3mde3MDEINS_7CEC20063F23EE4clipERNS_4help6VectorILm9EEERKS6_
FN:354,_ZN3mde3MDEINS_7CEC20063F11EE4clipERNS_4help6VectorILm2EEERKS6_
FN:354,_ZN3mde3MDEINS_7CEC20062F7EE4clipERNS_4help6VectorILm10EEERKS6_
FN:354,_ZN3mde3MDEINS_7CEC20063F24EE4clipERNS_4help6VectorILm2EEERKS6_
FN:354,_ZN3mde3MDEINS_7CEC20062F9EE4clipERNS_4help6VectorILm7EEERKS6_
FN:354,_ZN3mde3MDEINS_7CEC20062F3EE4clipERNS_4help6VectorILm10EEERKS6_
FN:354,_ZN3mde3MDEINS_7CEC20062F2EE4clipERNS_4help6VectorILm20EEERKS6_
FN:354,_ZN3mde3MDEIN12_GLOBAL__N_16AckleyEE4clipERNS_4help6VectorILm0EEERKS6_
FN:354,_ZN3mde3MDEINS_7CEC20063F17EE4clipERNS_4help6VectorILm6EEERKS6_
FN:354,_ZN3mde3MDEINS_7CEC20063F12EE4clipERNS_4help6VectorILm3EEERKS6_
FN:354,_ZN3mde3MDEINS_7CEC20063F22EE4clipERNS_4help6VectorILm22EEERKS6_
FN:354,_ZN3mde3MDEINS_7CEC20062F4EE4clipERNS_4help6VectorILm5EEERKS6_
FN:354,_ZN3mde3MDEINS_7CEC20063F20EE4clipERNS_4help6VectorILm24EEERKS6_
FN:361,_ZN3mde3MDEIN12_GLOBAL__N_16AckleyEE12reinitializeERNS_4help6VectorILm0EEERKS6_
FN:361,_ZN3mde3MDEIN12_GLOBAL__N_115ConstRosenbrockEE12reinitializeERNS_4help6VectorILm0EEERKS6_
FN:361,_ZN3mde3MDEINS_7CEC20063F24EE12reinitializeERNS_4help6VectorILm2EEERKS6_
FN:361,_ZN3mde3MDEINS_7CEC20063F16EE12reinitializeERNS_4help6VectorILm5EEERKS6_
FN:361,_ZN3mde3MDEINS_7CEC20063F15EE12reinitializeERNS_4help6VectorILm3EEERKS6_
FN:361,_ZN3mde3MDEINS_7CEC20062F5EE12reinitializeERNS_4help6VectorILm4EEERKS6_
FN:361,_ZN3mde3MDEINS_7CEC20063F21EE12reinitializeERNS_4help6VectorILm7EEERKS6_
FN:361,_ZN3mde3MDEIN12_GLOBAL__N_110RosenbrockEE12reinitializeERNS_4help6VectorILm0EEERKS6_
FN:361,_ZN3mde3MDEINS_7CEC20062F3EE12reinitializeERNS_4help6VectorILm10EEERKS6_
FN:361,_ZN3mde3MDEINS_7CEC20063F22EE12reinitializeERNS_4help6VectorILm22EEERKS6_
FN:361,_ZN3mde3MDEINS_7CEC20063F19EE12reinitializeERNS_4help6VectorILm15EEERKS6_
FN:361,_ZN3mde3MDEINS_7CEC20063F12EE12reinitializeERNS_4help6VectorILm3EEERKS6_
FN:361,_ZN3mde3MDEINS_7CEC20062F7EE12reinitializeERNS_4help6VectorILm10EEERKS6_
FN:361,_ZN3mde3MDEINS_7CEC20063F10EE12reinitializeERNS_4help6VectorILm8EEERKS6_
FN:361,_ZN3mde3MDEINS_7CEC20063F18EE12reinitializeERNS_4help6VectorILm9EEERKS6_
FN:361,_ZN3mde3MDEINS_7CEC20063F20EE12reinitializeERNS_4help6VectorILm24EEERKS6_
FN:361,_ZN3mde3MDEINS_7CEC20062F4EE12reinitializeERNS_4help6VectorILm5EEERKS6_
FN:361,_ZN3mde3MDEINS_7CEC20062F2EE12reinitializeERNS_4help6VectorILm20EEERKS6_
FN:361,_ZN3mde3MDEINS_7CEC20063F17EE12reinitializeERNS_4help6VectorILm6EEERKS6_
FN:361,_ZN3mde3MDEINS_7CEC20063F23EE12reinitializeERNS_4help6VectorILm9EEERKS6_
FN:361,_ZN3mde3MDEINS_7CEC20063F14EE12reinitializeERNS_4help6VectorILm10EEERKS6_
FN:361,_ZN3mde3MDEINS_7CEC20063F11EE12reinitializeERNS_4help6VectorILm2EEERKS6_
FN:361,_ZN3mde3MDEINS_7CEC20062F6EE12reinitializeERNS_4help6VectorILm2EEERKS6_
FN:361,_ZN3mde3MDEINS_7CEC20063F13EE12reinitializeERNS_4help6VectorILm5EEERKS6_
FN:361,_ZN3mde3MDEINS_7CEC20062F9EE12reinitializeERNS_4help6VectorILm7EEERKS6_
FN:361,_ZN3mde3MDEINS_7CEC20062F1EE12reinitializeERNS_4help6VectorILm13EEERKS6_
FN:361,_ZN3mde3MDEINS_7CEC20062F8EE12reinitializeERNS_4help6VectorILm2EEERKS6_
FNDA:284605,_ZN3mde3MDEINS_7CEC20063F23EE10conservateERNS_4help6VectorILm9EEERKS6_
FNDA:1,_ZN3mde3MDEINS_7CEC20063F10EED2Ev
FNDA:1,_ZN3mde3MDEINS_7CEC20062F7EEC2ERKNS_10ParametersERKS2_
FNDA:0,_ZN3mde3MDEINS_7CEC20063F22EE4clipERNS_4help6VectorILm22EEERKS6_
FNDA:0,_ZN3mde3MDEINS_7CEC20062F5EE12withinBoundsERKNS_4help6VectorILm4EEE
FNDA:0,_ZN3mde3MDEINS_7CEC20062F6EE12reinitializeERNS_4help6VectorILm2EEERKS6_
FNDA:499950,_ZN3mde3MDEINS_7CEC20063F20EE10conservateERNS_4help6VectorILm24EEERKS6_
FNDA:1,_ZN3mde3MDEINS_7CEC20063F19EE10initializeEv
FNDA:17335,_ZN3mde3MDEINS_7CEC20063F22EE10conservateERNS_4help6VectorILm22EEERKS6_
FNDA:0,_ZN3mde3MDEINS_7CEC20062F4EE4clipERNS_4help6VectorILm5EEERKS6_
FNDA:1,_ZN3mde3MDEINS_7CEC20062F5EEC2ERKNS_10ParametersERKS2_
FNDA:499950,_ZN3mde3MDEINS_7CEC20063F21EE20differentialMutationERKNS_4help6VectorILm7EEES8_S8_S8_
FNDA:1,_ZN3mde3MDEINS_7CEC20063F17EE10initializeEv
FNDA:0,_ZN3mde3MDEINS_7CEC20062F7EE12withinBoundsERKNS_4help6VectorILm10EEE
FNDA:1,_ZN3mde3MDEINS_7CEC20063F20EEC2ERKNS_10ParametersERKS2_
FNDA:0,_ZN3mde3MDEINS_7CEC20063F13EE12reinitializeERNS_4help6VectorILm5EEERKS6_
FNDA:1,_ZN3mde3MDEINS_7CEC20062F1EED2Ev
FNDA:0,_ZN3mde3MDEINS_7CEC20062F9EE12reinitializeERNS_4help6VectorILm7EEERKS6_
FNDA:1,_ZN3mde3MDEINS_7CEC20063F15EED2Ev
FNDA:1,_ZN3mde3MDEINS_7CEC20062F5EEclEv
FNDA:30,_ZN3mde3MDEINS_7CEC20062F6EE9newVectorEv
FNDA:1,_ZN3mde3MDEINS_7CEC20062F1EEC2ERKNS_10ParametersERKS2_
FNDA:309600,_ZN3mde3MDEINS_7CEC20063F18EE12withinBoundsEdi
FNDA:30,_ZN3mde3MDEINS_7CEC20062F3EE9newVectorEv
FNDA:1395,_ZN3mde3MDEINS_7CEC20063F12EE10conservateERNS_4help6VectorILm3EEERKS6_
FNDA:9180,_ZN3mde3MDEINS_7CEC20062F4EE20differentialMutationERKNS_4help6VectorILm5EEES8_S8_S8_
FNDA:1,_ZN3mde3MDEIN12_GLOBAL__N_115ConstRosenbrockEE10initializeEv
FNDA:0,_ZN3mde3MDEINS_7CEC20062F8EE12reinitializeERNS_4help6VectorILm2EEERKS6_
FNDA:0,_ZN3mde3MDEINS_7CEC20063F20EE4clipERNS_4help6VectorILm24EEERKS6_
FNDA:1,_ZN3mde3MDEIN12_GLOBAL__N_16AckleyEEclEv
FNDA:1,_ZN3mde3MDEINS_7CEC20062F9EE10initializeEv
FNDA:0,_ZN3mde3MDEINS_7CEC20062F1EE12reinitializeERNS_4help6VectorILm13EEERKS6_
FNDA:5935,_ZN3mde3MDEINS_7CEC20063F11EE20differentialMutationERKNS_4help6VectorILm2EEES8_S8_S8_
FNDA:1,_ZN3mde3MDEINS_7CEC20063F17EEclEv
FNDA:1,_ZN3mde3MDEINS_7CEC20062F7EE10initializeEv
FNDA:0,_ZN3mde3MDEINS_7CEC20062F6EE12withinBoundsERKNS_4help6VectorILm2EEE
FNDA:416,_ZN3mde3MDEINS_7CEC20063F24EE9convergedERKNS_4help6VectorILm2EEE
FNDA:30,_ZN3mde3MDEINS_7CEC20062F8EE9newVectorEv
FNDA:0,_ZN3mde3MDEINS_7CEC20063F17EE12reinitializeERNS_4help6VectorILm6EEERKS6_
FNDA:1,_ZN3mde3MDEINS_7CEC20062F8EEC2ERKNS_10ParametersERKS2_
FNDA:1,_ZN3mde3MDEINS_7CEC20062F3EEclEv
FNDA:1,_ZN3mde3MDEINS_7CEC20062F8EED2Ev
FNDA:0,_ZN3mde3MDEINS_7CEC20063F17EE4clipERNS_4help6VectorILm6EEERKS6_
FNDA:1,_ZN3mde3MDEINS_7CEC20063F22EEC2ERKNS_10ParametersERKS2_
FNDA:857,_ZN3mde3MDEIN12_GLOBAL__N_110RosenbrockEE9newVectorEv
FNDA:209105,_ZN3mde3MDEINS_7CEC20062F1EE12withinBoundsEdi
FNDA:2010,_ZN3mde3MDEINS_7CEC20063F24EE10conservateERNS_4help6VectorILm2EEERKS6_
FNDA:2499750,_ZN3mde3MDEINS_7CEC20063F13EE12withinBoundsEdi
FNDA:7110,_ZN3mde3MDEINS_7CEC20063F18EE9convergedERKNS_4help6VectorILm9EEE
FNDA:1,_ZN3mde3MDEINS_7CEC20063F14EEclEv
FNDA:1,_ZN3mde3MDEINS_7CEC20063F10EE10initializeEv
FNDA:1075,_ZN3mde3MDEINS_7CEC20062F8EE10conservateERNS_4help6VectorILm2EEERKS6_
FNDA:0,_ZN3mde3MDEINS_7CEC20063F14EE12reinitializeERNS_4help6VectorILm10EEERKS6_
FNDA:2050,_ZN3mde3MDEINS_7CEC20062F9EE9convergedERKNS_4help6VectorILm7EEE
FNDA:18430,_ZN3mde3MDEINS_7CEC20062F6EE12withinBoundsEdi
FNDA:1,_ZN3mde3MDEINS_7CEC20063F14EED2Ev
FNDA:30,_ZN3mde3MDEINS_7CEC20063F23EE9newVectorEv
FNDA:0,_ZN3mde3MDEINS_7CEC20063F23EE12reinitializeERNS_4help6VectorILm9EEERKS6_
FNDA:1800,_ZN3mde3MDEINS_7CEC20063F15EE9convergedERKNS_4help6VectorILm3EEE
FNDA:1,_ZN3mde3MDEINS_7CEC20063F20EEclEv
FNDA:1,_ZN3mde3MDEINS_7CEC20062F7EED2Ev
FNDA:6475,_ZN3mde3MDEINS_7CEC20063F16EE10conservateERNS_4help6VectorILm5EEERKS6_
FNDA:0,_ZN3mde3MDEINS_7CEC20063F11EE12reinitializeERNS_4help6VectorILm2EEERKS6_
FNDA:1,_ZN3mde3MDEINS_7CEC20062F4EED2Ev
FNDA:951420,_ZN3mde3MDEINS_7CEC20063F17EE12withinBoundsEdi
FNDA:1,_ZN3mde3MDEINS_7CEC20063F21EE10initializeEv
FNDA:0,_ZN3mde3MDEINS_7CEC20063F12EE4clipERNS_4help6VectorILm3EEERKS6_
FNDA:1,_ZN3mde3MDEINS_7CEC20062F2EEC2ERKNS_10ParametersERKS2_
FNDA:9999000,_ZN3mde3MDEINS_7CEC20062F2EE12withinBoundsEdi
FNDA:1,_ZN3mde3MDEINS_7CEC20062F5EED2Ev
FNDA:158570,_ZN3mde3MDEINS_7CEC20063F17EE20differentialMutationERKNS_4help6VectorILm6EEES8_S8_S8_
FNDA:30,_ZN3mde3MDEINS_7CEC20063F17EE9newVectorEv
FNDA:1075,_ZN3mde3MDEINS_7CEC20062F8EE20differentialMutationERKNS_4help6VectorILm2EEES8_S8_S8_
FNDA:1,_ZN3mde3MDEINS_7CEC20062F9EEclEv
FNDA:499950,_ZN3mde3MDEIN12_GLOBAL__N_115ConstRosenbrockEE20differentialMutationERKNS_4help6VectorILm0EEES8_S8_S8_
FNDA:103324,_ZN3mde3MDEINS_7CEC20063F21EE9convergedERKNS_4help6VectorILm7EEE
FNDA:417700,_ZN3mde3MDEINS_7CEC20062F3EE12withinBoundsEdi
FNDA:499950,_ZN3mde3MDEINS_7CEC20063F19EE10conservateERNS_4help6VectorILm15EEERKS6_
FNDA:1,_ZN3mde3MDEINS_7CEC20062F1EEclEv
FNDA:0,_ZN3mde3MDEINS_7CEC20062F2EE12withinBoundsERKNS_4help6VectorILm20EEE
FNDA:1,_ZN3mde3MDEINS_7CEC20063F19EEC2ERKNS_10ParametersERKS2_
FNDA:3325,_ZN3mde3MDEINS_7CEC20062F1EE9convergedERKNS_4help6VectorILm13EEE
FNDA:12290,_ZN3mde3MDEINS_7CEC20062F5EE10conservateERNS_4help6VectorILm4EEERKS6_
FNDA:999878,_ZN3mde3MDEIN12_GLOBAL__N_115ConstRosenbrockEE12withinBoundsEdi
FNDA:30,_ZN3mde3MDEINS_7CEC20063F19EE9newVectorEv
FNDA:1,_ZN3mde3MDEINS_7CEC20063F18EED2Ev
FNDA:0,_ZN3mde3MDEINS_7CEC20062F3EE4clipERNS_4help6VectorILm10EEERKS6_
FNDA:1,_ZN3mde3MDEIN12_GLOBAL__N_110RosenbrockEE10initializeEv
FNDA:0,_ZN3mde3MDEINS_7CEC20062F9EE4clipERNS_4help6VectorILm7EEERKS6_
FNDA:0,_ZN3mde3MDEINS_7CEC20063F24EE4clipERNS_4help6VectorILm2EEERKS6_
FNDA:0,_ZN3mde3MDEINS_7CEC20062F7EE4clipERNS_4help6VectorILm10EEERKS6_
FNDA:9180,_ZN3mde3MDEINS_7CEC20062F4EE10conservateERNS_4help6VectorILm5EEERKS6_
FNDA:17335,_ZN3mde3MDEINS_7CEC20063F22EE20differentialMutationERKNS_4help6VectorILm22EEES8_S8_S8_
FNDA:9215,_ZN3mde3MDEINS_7CEC20062F6EE20differentialMutationERKNS_4help6VectorILm2EEES8_S8_S8_
FNDA:103324,_ZN3mde3MDEINS_7CEC20063F20EE9convergedERKNS_4help6VectorILm24EEE
FNDA:1,_ZN3mde3MDEINS_7CEC20063F14EEC2ERKNS_10ParametersERKS2_
FNDA:151360,_ZN3mde3MDEINS_7CEC20063F10EE10conservateERNS_4help6VectorILm8EEERKS6_
FNDA:1,_ZN3mde3MDEINS_7CEC20062F6EEC2ERKNS_10ParametersERKS2_
FNDA:1339,_ZN3mde3MDEINS_7CEC20063F16EE9convergedERKNS_4help6VectorILm5EEE
FNDA:2540,_ZN3mde3MDEINS_7CEC20062F5EE9convergedERKNS_4help6VectorILm4EEE
FNDA:1,_ZN3mde3MDEINS_7CEC20062F8EEclEv
FNDA:0,_ZN3mde3MDEINS_7CEC20062F2EE4clipERNS_4help6VectorILm20EEERKS6_
FNDA:0,_ZN3mde3MDEINS_7CEC20062F4EE12reinitializeERNS_4help6VectorILm5EEERKS6_
FNDA:2150,_ZN3mde3MDEINS_7CEC20062F8EE12withinBoundsEdi
FNDA:1,_ZN3mde3MDEINS_7CEC20062F4EEC2ERKNS_10ParametersERKS2_
FNDA:0,_ZN3mde3MDEINS_7CEC20062F9EE12withinBoundsERKNS_4help6VectorILm7EEE
FNDA:1,_ZN3mde3MDEINS_7CEC20063F15EEclEv
FNDA:381370,_ZN3mde3MDEINS_7CEC20063F22EE12withinBoundsEdi
FNDA:499950,_ZN3mde3MDEINS_7CEC20063F14EE20differentialMutationERKNS_4help6VectorILm10EEES8_S8_S8_
FNDA:8705,_ZN3mde3MDEINS_7CEC20063F15EE20differentialMutationERKNS_4help6VectorILm3EEES8_S8_S8_
FNDA:1,_ZN3mde3MDEINS_7CEC20063F12EED2Ev
FNDA:8633,_ZN3mde3MDEINS_7CEC20062F3EE9convergedERKNS_4help6VectorILm10EEE
FNDA:1,_ZN3mde3MDEINS_7CEC20062F6EEclEv
FNDA:1,_ZN3mde3MDEINS_7CEC20062F9EEC2ERKNS_10ParametersERKS2_
FNDA:499950,_ZN3mde3MDEIN12_GLOBAL__N_16AckleyEE4clipERNS_4help6VectorILm0EEERKS6_
FNDA:1,_ZN3mde3MDEINS_7CEC20063F21EEC2ERKNS_10ParametersERKS2_
FNDA:0,_ZN3mde3MDEINS_7CEC20062F2EE12reinitializeERNS_4help6VectorILm20EEERKS6_
FNDA:0,_ZN3mde3MDEINS_7CEC20063F24EE12withinBoundsERKNS_4help6VectorILm2EEE
FNDA:30,_ZN3mde3MDEINS_7CEC20063F15EE9newVectorEv
FNDA:499950,_ZN3mde3MDEINS_7CEC20063F13EE20differentialMutationERKNS_4help6VectorILm5EEES8_S8_S8_
FNDA:1,_ZN3mde3MDEINS_7CEC20063F21EED2Ev
FNDA:45900,_ZN3mde3MDEINS_7CEC20062F4EE12withinBoundsEdi
FNDA:499950,_ZN3mde3MDEINS_7CEC20062F2EE10conservateERNS_4help6VectorILm20EEERKS6_
FNDA:0,_ZN3mde3MDEINS_7CEC20062F3EE12withinBoundsERKNS_4help6VectorILm10EEE
FNDA:1,_ZN3mde3MDEINS_7CEC20062F6EED2Ev
FNDA:30,_ZN3mde3MDEINS_7CEC20063F24EE9newVectorEv
FNDA:0,_ZN3mde3MDEINS_7CEC20062F5EE4clipERNS_4help6VectorILm4EEERKS6_
FNDA:4998160,_ZN3mde3MDEIN12_GLOBAL__N_110RosenbrockEE12withinBoundsEdi
FNDA:30,_ZN3mde3MDEINS_7CEC20063F12EE9newVectorEv
FNDA:103324,_ZN3mde3MDEIN12_GLOBAL__N_16AckleyEE9convergedERKNS_4help6VectorILm0EEE
FNDA:223,_ZN3mde3MDEINS_7CEC20062F8EE9convergedERKNS_4help6VectorILm2EEE
FNDA:4020,_ZN3mde3MDEINS_7CEC20063F24EE12withinBoundsEdi
FNDA:499950,_ZN3mde3MDEIN12_GLOBAL__N_16AckleyEE20differentialMutationERKNS_4help6VectorILm0EEES8_S8_S8_
FNDA:1,_ZN3mde3MDEINS_7CEC20063F23EEC2ERKNS_10ParametersERKS2_
FNDA:1,_ZN3mde3MDEINS_7CEC20063F22EEclEv
FNDA:0,_ZN3mde3MDEINS_7CEC20063F10EE12reinitializeERNS_4help6VectorILm8EEERKS6_
FNDA:499950,_ZN3mde3MDEINS_7CEC20063F19EE20differentialMutationERKNS_4help6VectorILm15EEES8_S8_S8_
FNDA:0,_ZN3mde3MDEINS_7CEC20063F14EE12withinBoundsERKNS_4help6VectorILm10EEE
FNDA:0,_ZN3mde3MDEINS_7CEC20062F7EE12reinitializeERNS_4help6VectorILm10EEERKS6_
FNDA:1,_ZN3mde3MDEINS_7CEC20063F23EEclEv
FNDA:1,_ZN3mde3MDEINS_7CEC20063F17EED2Ev
FNDA:0,_ZN3mde3MDEINS_7CEC20063F20EE12withinBoundsERKNS_4help6VectorILm24EEE
FNDA:1,_ZN3mde3MDEINS_7CEC20063F24EEC2ERKNS_10ParametersERKS2_
FNDA:0,_ZN3mde3MDEINS_7CEC20063F23EE4clipERNS_4help6VectorILm9EEERKS6_
FNDA:0,_ZN3mde3MDEINS_7CEC20063F14EE4clipERNS_4help6VectorILm10EEERKS6_
FNDA:6475,_ZN3mde3MDEINS_7CEC20063F16EE20differentialMutationERKNS_4help6VectorILm5EEES8_S8_S8_
FNDA:0,_ZN3mde3MDEINS_7CEC20063F21EE4clipERNS_4help6VectorILm7EEERKS6_
FNDA:1,_ZN3mde3MDEIN12_GLOBAL__N_16AckleyEE10initializeEv
FNDA:30,_ZN3mde3MDEINS_7CEC20063F16EE9newVectorEv
FNDA:0,_ZN3mde3MDEINS_7CEC20063F18EE12reinitializeERNS_4help6VectorILm9EEERKS6_
FNDA:0,_ZN3mde3MDEINS_7CEC20063F10EE12withinBoundsERKNS_4help6VectorILm8EEE
FNDA:0,_ZN3mde3MDEIN12_GLOBAL__N_110RosenbrockEE4clipERNS_4help6VectorILm0EEERKS6_
FNDA:1,_ZN3mde3MDEINS_7CEC20063F22EED2Ev
FNDA:27,_ZN3mde10ParametersC2ERKS0_
FNDA:0,_ZN3mde3MDEINS_7CEC20063F11EE4clipERNS_4help6VectorILm2EEERKS6_
FNDA:2561445,_ZN3mde3MDEINS_7CEC20063F23EE12withinBoundsEdi
FNDA:30,_ZN3mde3MDEINS_7CEC20062F4EE9newVectorEv
FNDA:1,_ZN3mde3MDEINS_7CEC20063F11EEC2ERKNS_10ParametersERKS2_
FNDA:1,_ZN3mde3MDEINS_7CEC20062F3EE10initializeEv
FNDA:9915,_ZN3mde3MDEINS_7CEC20062F9EE20differentialMutationERKNS_4help6VectorILm7EEES8_S8_S8_
FNDA:0,_ZN3mde3MDEINS_7CEC20063F20EE12reinitializeERNS_4help6VectorILm24EEERKS6_
FNDA:0,_ZN3mde3MDEINS_7CEC20063F18EE12withinBoundsERKNS_4help6VectorILm9EEE
FNDA:1,_ZN3mde3MDEINS_7CEC20063F15EEC2ERKNS_10ParametersERKS2_
FNDA:499950,_ZN3mde3MDEINS_7CEC20063F14EE10conservateERNS_4help6VectorILm10EEERKS6_
FNDA:0,_ZN3mde3MDEIN12_GLOBAL__N_16AckleyEE12withinBoundsERKNS_4help6VectorILm0EEE
FNDA:30,_ZN3mde3MDEINS_7CEC20063F22EE9newVectorEv
FNDA:0,_ZN3mde3MDEINS_7CEC20063F17EE12withinBoundsERKNS_4help6VectorILm6EEE
FNDA:1,_ZN3mde3MDEINS_7CEC20062F2EE10initializeEv
FNDA:1,_ZN3mde3MDEINS_7CEC20063F12EE10initializeEv
FNDA:1,_ZN3mde3MDEINS_7CEC20063F10EEclEv
FNDA:0,_ZN3mde3MDEINS_7CEC20062F3EE12reinitializeERNS_4help6VectorILm10EEERKS6_
FNDA:1,_ZN3mde3MDEINS_7CEC20063F21EEclEv
FNDA:32772,_ZN3mde3MDEINS_7CEC20063F17EE9convergedERKNS_4help6VectorILm6EEE
FNDA:1905,_ZN3mde3MDEINS_7CEC20062F6EE9convergedERKNS_4help6VectorILm2EEE
FNDA:11998800,_ZN3mde3MDEINS_7CEC20063F20EE12withinBoundsEdi
FNDA:5935,_ZN3mde3MDEINS_7CEC20063F11EE10conservateERNS_4help6VectorILm2EEERKS6_
FNDA:30,_ZN3mde3MDEINS_7CEC20063F21EE9newVectorEv
FNDA:54,_ZN3mde10ParametersD2Ev
FNDA:2010,_ZN3mde3MDEINS_7CEC20063F24EE20differentialMutationERKNS_4help6VectorILm2EEES8_S8_S8_
FNDA:0,_ZN3mde3MDEINS_7CEC20063F21EE12withinBoundsERKNS_4help6VectorILm7EEE
FNDA:1,_ZN3mde3MDEINS_7CEC20063F18EEclEv
FNDA:1,_ZN3mde3MDEINS_7CEC20062F1EE10initializeEv
FNDA:0,_ZN3mde3MDEINS_7CEC20063F19EE12withinBoundsERKNS_4help6VectorILm15EEE
FNDA:1,_ZN3mde3MDEINS_7CEC20063F24EED2Ev
FNDA:4185,_ZN3mde3MDEINS_7CEC20063F12EE12withinBoundsEdi
FNDA:499950,_ZN3mde3MDEINS_7CEC20062F2EE20differentialMutationERKNS_4help6VectorILm20EEES8_S8_S8_
FNDA:1898,_ZN3mde3MDEINS_7CEC20062F4EE9convergedERKNS_4help6VectorILm5EEE
FNDA:1,_ZN3mde3MDEINS_7CEC20063F16EE10initializeEv
FNDA:1,_ZN3mde3MDEINS_7CEC20063F24EE10initializeEv
FNDA:31282,_ZN3mde3MDEINS_7CEC20063F10EE9convergedERKNS_4help6VectorILm8EEE
FNDA:0,_ZN3mde3MDEINS_7CEC20063F19EE12reinitializeERNS_4help6VectorILm15EEERKS6_
FNDA:41770,_ZN3mde3MDEINS_7CEC20062F3EE10conservateERNS_4help6VectorILm10EEERKS6_
FNDA:0,_ZN3mde3MDEINS_7CEC20063F22EE12reinitializeERNS_4help6VectorILm22EEERKS6_
FNDA:0,_ZN3mde3MDEINS_7CEC20062F8EE12withinBoundsERKNS_4help6VectorILm2EEE
FNDA:0,_ZN3mde3MDEINS_7CEC20063F19EE4clipERNS_4help6VectorILm15EEERKS6_
FNDA:8705,_ZN3mde3MDEINS_7CEC20063F15EE10conservateERNS_4help6VectorILm3EEERKS6_
FNDA:12290,_ZN3mde3MDEINS_7CEC20062F5EE20differentialMutationERKNS_4help6VectorILm4EEES8_S8_S8_
FNDA:1,_ZN3mde3MDEIN12_GLOBAL__N_110RosenbrockEEC2ERKNS_10ParametersERKS2_
FNDA:1,_ZN3mde3MDEINS_7CEC20062F8EE10initializeEv
FNDA:69,_ZN3mde3MDEIN12_GLOBAL__N_115ConstRosenbrockEE9newVectorEv
FNDA:1,_ZN3mde3MDEINS_7CEC20063F23EED2Ev
FNDA:0,_ZN3mde3MDEINS_7CEC20063F12EE12reinitializeERNS_4help6VectorILm3EEERKS6_
FNDA:0,_ZN3mde3MDEIN12_GLOBAL__N_16AckleyEE12withinBoundsEdi
FNDA:9215,_ZN3mde3MDEINS_7CEC20062F6EE10conservateERNS_4help6VectorILm2EEERKS6_
FNDA:1210880,_ZN3mde3MDEINS_7CEC20063F10EE12withinBoundsEdi
FNDA:30,_ZN3mde3MDEIN12_GLOBAL__N_16AckleyEE9newVectorEv
FNDA:1,_ZN3mde3MDEIN12_GLOBAL__N_110RosenbrockEED2Ev
FNDA:499950,_ZN3mde3MDEIN12_GLOBAL__N_110RosenbrockEE12reinitializeERNS_4help6VectorILm0EEERKS6_
FNDA:0,_ZN3mde3MDEINS_7CEC20063F16EE4clipERNS_4help6VectorILm5EEERKS6_
FNDA:1395,_ZN3mde3MDEINS_7CEC20063F12EE20differentialMutationERKNS_4help6VectorILm3EEES8_S8_S8_
FNDA:1,_ZN3mde3MDEINS_7CEC20063F20EED2Ev
FNDA:1,_ZN3mde3MDEIN12_GLOBAL__N_115ConstRosenbrockEED2Ev
FNDA:1,_ZN3mde3MDEINS_7CEC20063F15EE10initializeEv
FNDA:0,_ZN3mde3MDEINS_7CEC20062F1EE12withinBoundsERKNS_4help6VectorILm13EEE
FNDA:1,_ZN3mde3MDEINS_7CEC20062F3EEC2ERKNS_10ParametersERKS2_
FNDA:0,_ZN3mde3MDEINS_7CEC20063F13EE4clipERNS_4help6VectorILm5EEERKS6_
FNDA:30,_ZN3mde3MDEINS_7CEC20062F2EE9newVectorEv
FNDA:30,_ZN3mde3MDEINS_7CEC20063F10EE9newVectorEv
FNDA:1,_ZN3mde3MDEIN12_GLOBAL__N_110RosenbrockEEclEv
FNDA:0,_ZN3mde3MDEINS_7CEC20062F1EE4clipERNS_4help6VectorILm13EEERKS6_
FNDA:30,_ZN3mde3MDEINS_7CEC20063F20EE9newVectorEv
FNDA:499950,_ZN3mde3MDEIN12_GLOBAL__N_110RosenbrockEE12withinBoundsERKNS_4help6VectorILm0EEE
FNDA:0,_ZN3mde3MDEINS_7CEC20062F6EE4clipERNS_4help6VectorILm2EEERKS6_
FNDA:0,_ZN3mde3MDEINS_7CEC20063F13EE12withinBoundsERKNS_4help6VectorILm5EEE
FNDA:499950,_ZN3mde3MDEINS_7CEC20063F13EE10conservateERNS_4help6VectorILm5EEERKS6_
FNDA:1,_ZN3mde3MDEINS_7CEC20063F11EEclEv
FNDA:103324,_ZN3mde3MDEIN12_GLOBAL__N_115ConstRosenbrockEE9convergedERKNS_4help6VectorILm0EEE
FNDA:30,_ZN3mde3MDEINS_7CEC20063F13EE9newVectorEv
FNDA:4999500,_ZN3mde3MDEINS_7CEC20063F14EE12withinBoundsEdi
FNDA:3583,_ZN3mde3MDEINS_7CEC20063F22EE9convergedERKNS_4help6VectorILm22EEE
FNDA:1,_ZN3mde3MDEINS_7CEC20063F22EE10initializeEv
FNDA:3499650,_ZN3mde3MDEINS_7CEC20063F21EE12withinBoundsEdi
FNDA:1,_ZN3mde3MDEINS_7CEC20062F2EED2Ev
FNDA:1,_ZN3mde3MDEINS_7CEC20063F16EED2Ev
FNDA:1,_ZN3mde3MDEINS_7CEC20063F14EE10initializeEv
FNDA:1,_ZN3mde3MDEINS_7CEC20063F20EE10initializeEv
FNDA:0,_ZN3mde3MDEINS_7CEC20062F4EE12withinBoundsERKNS_4help6VectorILm5EEE
FNDA:32375,_ZN3mde3MDEINS_7CEC20063F16EE12withinBoundsEdi
FNDA:0,_ZN3mde3MDEIN12_GLOBAL__N_110RosenbrockEE10conservateERNS_4help6VectorILm0EEERKS6_
FNDA:499950,_ZN3mde3MDEINS_7CEC20063F20EE20differentialMutationERKNS_4help6VectorILm24EEES8_S8_S8_
FNDA:103324,_ZN3mde3MDEINS_7CEC20063F19EE9convergedERKNS_4help6VectorILm15EEE
FNDA:1,_ZN3mde3MDEINS_7CEC20063F12EEC2ERKNS_10ParametersERKS2_
FNDA:1227,_ZN3mde3MDEINS_7CEC20063F11EE9convergedERKNS_4help6VectorILm2EEE
FNDA:40838,_ZN3mde3MDEINS_7CEC20062F7EE9convergedERKNS_4help6VectorILm10EEE
FNDA:1,_ZN3mde3MDEINS_7CEC20063F13EEC2ERKNS_10ParametersERKS2_
FNDA:49160,_ZN3mde3MDEINS_7CEC20062F5EE12withinBoundsEdi
FNDA:1,_ZN3mde3MDEINS_7CEC20062F2EEclEv
FNDA:289,_ZN3mde3MDEINS_7CEC20063F12EE9convergedERKNS_4help6VectorILm3EEE
FNDA:1,_ZN3mde3MDEINS_7CEC20062F5EE10initializeEv
FNDA:1,_ZN3mde3MDEINS_7CEC20062F4EE10initializeEv
FNDA:1,_ZN3mde3MDEINS_7CEC20063F16EEC2ERKNS_10ParametersERKS2_
FNDA:34400,_ZN3mde3MDEINS_7CEC20063F18EE20differentialMutationERKNS_4help6VectorILm9EEES8_S8_S8_
FNDA:0,_ZN3mde3MDEINS_7CEC20063F15EE12reinitializeERNS_4help6VectorILm3EEERKS6_
FNDA:0,_ZN3mde3MDEINS_7CEC20063F22EE12withinBoundsERKNS_4help6VectorILm22EEE
FNDA:1,_ZN3mde3MDEINS_7CEC20062F9EED2Ev
FNDA:1,_ZN3mde3MDEINS_7CEC20062F6EE10initializeEv
FNDA:27,_ZN3mde10ParametersC2EidddddiidNSt7__cxx1112basic_stringIcSt11char_traitsIcESaIcEEE
FNDA:197600,_ZN3mde3MDEINS_7CEC20062F7EE20differentialMutationERKNS_4help6VectorILm10EEES8_S8_S8_
FNDA:151360,_ZN3mde3MDEINS_7CEC20063F10EE20differentialMutationERKNS_4help6VectorILm8EEES8_S8_S8_
FNDA:41770,_ZN3mde3MDEINS_7CEC20062F3EE20differentialMutationERKNS_4help6VectorILm10EEES8_S8_S8_
FNDA:16085,_ZN3mde3MDEINS_7CEC20062F1EE20differentialMutationERKNS_4help6VectorILm13EEES8_S8_S8_
FNDA:1,_ZN3mde3MDEINS_7CEC20062F7EEclEv
FNDA:1,_ZN3mde3MDEINS_7CEC20063F12EEclEv
FNDA:30,_ZN3mde3MDEINS_7CEC20062F9EE9newVectorEv
FNDA:0,_ZN3mde3MDEINS_7CEC20063F18EE4clipERNS_4help6VectorILm9EEERKS6_
FNDA:30,_ZN3mde3MDEINS_7CEC20062F1EE9newVectorEv
FNDA:0,_ZN3mde3MDEINS_7CEC20062F5EE12reinitializeERNS_4help6VectorILm4EEERKS6_
FNDA:0,_ZN3mde3MDEINS_7CEC20063F16EE12withinBoundsERKNS_4help6VectorILm5EEE
FNDA:1,_ZN3mde3MDEIN12_GLOBAL__N_16AckleyEED2Ev
FNDA:69405,_ZN3mde3MDEINS_7CEC20062F9EE12withinBoundsEdi
FNDA:30,_ZN3mde3MDEINS_7CEC20062F5EE9newVectorEv
FNDA:30,_ZN3mde3MDEINS_7CEC20062F7EE9newVectorEv
FNDA:499950,_ZN3mde3MDEIN12_GLOBAL__N_115ConstRosenbrockEE12withinBoundsERKNS_4help6VectorILm0EEE
FNDA:103324,_ZN3mde3MDEIN12_GLOBAL__N_110RosenbrockEE9convergedERKNS_4help6VectorILm0EEE
FNDA:1,_ZN3mde3MDEINS_7CEC20063F18EE10initializeEv
FNDA:0,_ZN3mde3MDEINS_7CEC20063F21EE12reinitializeERNS_4help6VectorILm7EEERKS6_
FNDA:103324,_ZN3mde3MDEINS_7CEC20062F2EE9convergedERKNS_4help6VectorILm20EEE
FNDA:1,_ZN3mde3MDEINS_7CEC20063F19EEclEv
FNDA:103324,_ZN3mde3MDEINS_7CEC20063F13EE9convergedERKNS_4help6VectorILm5EEE
FNDA:7499250,_ZN3mde3MDEINS_7CEC20063F19EE12withinBoundsEdi
FNDA:1,_ZN3mde3MDEIN12_GLOBAL__N_115ConstRosenbrockEEC2ERKNS_10ParametersERKS2_
FNDA:499950,_ZN3mde3MDEIN12_GLOBAL__N_110RosenbrockEE20differentialMutationERKNS_4help6VectorILm0EEES8_S8_S8_
FNDA:26115,_ZN3mde3MDEINS_7CEC20063F15EE12withinBoundsEdi
FNDA:1,_ZN3mde3MDEINS_7CEC20063F16EEclEv
FNDA:197600,_ZN3mde3MDEINS_7CEC20062F7EE10conservateERNS_4help6VectorILm10EEERKS6_
FNDA:58819,_ZN3mde3MDEINS_7CEC20063F23EE9convergedERKNS_4help6VectorILm9EEE
FNDA:1,_ZN3mde3MDEINS_7CEC20063F13EEclEv
FNDA:0,_ZN3mde3MDEIN12_GLOBAL__N_115ConstRosenbrockEE10conservateERNS_4help6VectorILm0EEERKS6_
FNDA:158570,_ZN3mde3MDEINS_7CEC20063F17EE10conservateERNS_4help6VectorILm6EEERKS6_
FNDA:16085,_ZN3mde3MDEINS_7CEC20062F1EE10conservateERNS_4help6VectorILm13EEERKS6_
FNDA:1,_ZN3mde3MDEINS_7CEC20063F18EEC2ERKNS_10ParametersERKS2_
FNDA:0,_ZN3mde3MDEIN12_GLOBAL__N_115ConstRosenbrockEE4clipERNS_4help6VectorILm0EEERKS6_
FNDA:1,_ZN3mde3MDEINS_7CEC20063F11EE10initializeEv
FNDA:1,_ZN3mde3MDEINS_7CEC20063F13EE10initializeEv
FNDA:0,_ZN3mde3MDEIN12_GLOBAL__N_16AckleyEE10conservateERNS_4help6VectorILm0EEERKS6_
FNDA:1,_ZN3mde3MDEIN12_GLOBAL__N_16AckleyEEC2ERKNS_10ParametersERKS2_
FNDA:1,_ZN3mde3MDEINS_7CEC20063F23EE10initializeEv
FNDA:0,_ZN3mde3MDEINS_7CEC20063F12EE12withinBoundsERKNS_4help6VectorILm3EEE
FNDA:1,_ZN3mde3MDEINS_7CEC20063F17EEC2ERKNS_10ParametersERKS2_
FNDA:11870,_ZN3mde3MDEINS_7CEC20063F11EE12withinBoundsEdi
FNDA:1,_ZN3mde3MDEINS_7CEC20063F10EEC2ERKNS_10ParametersERKS2_
FNDA:30,_ZN3mde3MDEINS_7CEC20063F11EE9newVectorEv
FNDA:1976000,_ZN3mde3MDEINS_7CEC20062F7EE12withinBoundsEdi
FNDA:284605,_ZN3mde3MDEINS_7CEC20063F23EE20differentialMutationERKNS_4help6VectorILm9EEES8_S8_S8_
FNDA:0,_ZN3mde3MDEIN12_GLOBAL__N_16AckleyEE12reinitializeERNS_4help6VectorILm0EEERKS6_
FNDA:0,_ZN3mde3MDEINS_7CEC20063F15EE4clipERNS_4help6VectorILm3EEERKS6_
FNDA:1,_ZN3mde3MDEINS_7CEC20063F13EED2Ev
FNDA:1,_ZN3mde3MDEINS_7CEC20062F3EED2Ev
FNDA:1,_ZN3mde3MDEINS_7CEC20062F4EEclEv
FNDA:30,_ZN3mde3MDEINS_7CEC20063F18EE9newVectorEv
FNDA:499950,_ZN3mde3MDEIN12_GLOBAL__N_115ConstRosenbrockEE12reinitializeERNS_4help6VectorILm0EEERKS6_
FNDA:0,_ZN3mde3MDEINS_7CEC20062F8EE4clipERNS_4help6VectorILm2EEERKS6_
FNDA:34400,_ZN3mde3MDEINS_7CEC20063F18EE10conservateERNS_4help6VectorILm9EEERKS6_
FNDA:499950,_ZN3mde3MDEINS_7CEC20063F21EE10conservateERNS_4help6VectorILm7EEERKS6_
FNDA:1,_ZN3mde3MDEINS_7CEC20063F19EED2Ev
FNDA:1,_ZN3mde3MDEIN12_GLOBAL__N_115ConstRosenbrockEEclEv
FNDA:9915,_ZN3mde3MDEINS_7CEC20062F9EE10conservateERNS_4help6VectorILm7EEERKS6_
FNDA:0,_ZN3mde3MDEINS_7CEC20063F11EE12withinBoundsERKNS_4help6VectorILm2EEE
FNDA:0,_ZN3mde3MDEINS_7CEC20063F15EE12withinBoundsERKNS_4help6VectorILm3EEE
FNDA:1,_ZN3mde3MDEINS_7CEC20063F11EED2Ev
FNDA:0,_ZN3mde3MDEINS_7CEC20063F16EE12reinitializeERNS_4help6VectorILm5EEERKS6_
FNDA:30,_ZN3mde3MDEINS_7CEC20063F14EE9newVectorEv
FNDA:1,_ZN3mde3MDEINS_7CEC20063F24EEclEv
FNDA:103324,_ZN3mde3MDEINS_7CEC20063F14EE9convergedERKNS_4help6VectorILm10EEE
FNDA:0,_ZN3mde3MDEINS_7CEC20063F10EE4clipERNS_4help6VectorILm8EEERKS6_
FNDA:0,_ZN3mde3MDEINS_7CEC20063F24EE12reinitializeERNS_4help6VectorILm2EEERKS6_
FNDA:0,_ZN3mde3MDEINS_7CEC20063F23EE12withinBoundsERKNS_4help6VectorILm9EEE
FNF:327
FNH:247
DA:42,81
DA:44,27
DA:47,27
DA:50,27
DA:100,27
DA:114,27
DA:115,27
DA:116,54
DA:118,27
DA:119,27
DA:132,27
DA:135,27
DA:137,27
DA:139,27
DA:143,72915
DA:146,1129938
DA:148,1093494
DA:150,1393464
DA:153,6560964
DA:159,5467470
DA:161,5467470
DA:162,5467470
DA:163,5467470
DA:166,6967320
DA:169,5467470
DA:172,5467470
DA:174,5467470
DA:178,1093494
DA:179,18
DA:190,1093476
DA:192,158800
DA:193,58994
DA:197,934676
DA:199,1093476
DA:202,36444
DA:207,36444
DA:211,9
DA:216,27
DA:221,27
DA:224,27
DA:228,27
DA:230,27
DA:232,27
DA:244,27
DA:246,27
DA:247,2
DA:249,27
DA:251,27
DA:252,1
DA:254,27
DA:255,1
DA:259,27
DA:264,837
DA:266,810
DA:268,810
DA:270,27
DA:275,1676
DA:277,1676
DA:280,17074
DA:281,15398
DA:283,1676
DA:289,5467470
DA:291,5467470
DA:293,5467470
DA:303,70242950
DA:305,64775480
DA:306,58848299
DA:309,5927181
DA:312,5467470
DA:318,54775118
DA:320,54775118
DA:324,999900
DA:326,6997072
DA:327,5998038
DA:328,866
DA:330,999034
DA:336,1129965
DA:338,1129965
DA:346,3967620
DA:348,52744700
DA:349,48777080
DA:350,1906092
DA:351,3967620
DA:354,499950
DA:356,10498950
DA:357,9999000
DA:358,499950
DA:361,999900
DA:363,999900
DA:364,866
DA:365,999900
LF:91
LH:91
end_of_record
TN:
SF:/home/matheus/Algoritmos/MDE/include/MDE/Random.h
FN:23,_ZN4help4RandC2Ev
FN:29,_ZN4help7RandIntC2Ev
FN:31,_ZN4help7RandIntclEii
FN:38,_ZN4help10RandDoubleC2Ev
FN:40,_ZN4help10RandDoubleclEdd
FNDA:27,_ZN4help7RandIntC2Ev
FNDA:27,_ZN4help10RandDoubleC2Ev
FNDA:5467470,_ZN4help7RandIntclEii
FNDA:65884354,_ZN4help10RandDoubleclEdd
FNDA:54,_ZN4help4RandC2Ev
FNF:5
FNH:5
DA:23,54
DA:29,27
DA:31,5467470
DA:33,5467470
DA:38,27
DA:40,65884354
DA:42,65884354
LF:7
LH:7
end_of_record
TN:
SF:/home/matheus/Algoritmos/MDE/include/MDE/Vector.h
FN:45,_ZN3mde4help10VectorBaseIdLm0EEC2EOS2_
FN:45,_ZN3mde4help10VectorBaseIdLm0EED2Ev
FN:45,_ZN3mde4help10VectorBaseIdLm0EEaSEOS2_
FN:45,_ZN3mde4help10VectorBaseIdLm0EEC2ERKS2_
FN:45,_ZN3mde4help10VectorBaseIdLm0EEaSERKS2_
FN:49,_ZN3mde4help10VectorBaseIdLm0EEC2EmRKd
FN:49,_ZN3mde4help10VectorBaseIdLm0EEC2Em
FN:58,_ZN3mde4help10VectorBaseIdLm3EEC2Ev
FN:58,_ZN3mde4help10VectorBaseIdLm24EEC2Ev
FN:58,_ZN3mde4help10VectorBaseIdLm13EEC2Ev
FN:58,_ZN3mde4help10VectorBaseIdLm9EEC2Ev
FN:58,_ZN3mde4help10VectorBaseIdLm10EEC2Ev
FN:58,_ZN3mde4help10VectorBaseIdLm15EEC2Ev
FN:58,_ZN3mde4help10VectorBaseIdLm8EEC2Ev
FN:58,_ZN3mde4help10VectorBaseIdLm2EEC2Ev
FN:58,_ZN3mde4help10VectorBaseIdLm5EEC2Ev
FN:58,_ZN3mde4help10VectorBaseIdLm20EEC2Ev
FN:58,_ZN3mde4help10VectorBaseIdLm6EEC2Ev
FN:58,_ZN3mde4help10VectorBaseIdLm22EEC2Ev
FN:58,_ZN3mde4help10VectorBaseIdLm0EEC2Ev
FN:58,_ZN3mde4help10VectorBaseIdLm7EEC2Ev
FN:58,_ZN3mde4help10VectorBaseIdLm4EEC2Ev
FN:62,_ZN3mde4help10VectorBaseIdLm5EEC2ISt5arrayIdLm5EEvEESt16initializer_listIdE
FN:62,_ZN3mde4help10VectorBaseIdLm2EEC2ISt5arrayIdLm2EEvEESt16initializer_listIdE
FN:69,_ZN3mde4help10VectorBaseIdLm5EEC2ISt5arrayIdLm5EEvEEiRKd
FN:69,_ZN3mde4help10VectorBaseIdLm20EEC2ISt5arrayIdLm20EEvEEiRKd
FN:69,_ZN3mde4help10VectorBaseIdLm8EEC2ISt5arrayIdLm8EEvEEiRKd
FN:69,_ZN3mde4help10VectorBaseIdLm13EEC2ISt5arrayIdLm13EEvEEiRKd
FN:69,_ZN3mde4help10VectorBaseIdLm10EEC2ISt5arrayIdLm10EEvEEiRKd
FN:69,_ZN3mde4help10VectorBaseIdLm24EEC2ISt5arrayIdLm24EEvEEiRKd
FN:69,_ZN3mde4help10VectorBaseIdLm3EEC2ISt5arrayIdLm3EEvEEiRKd
FN:69,_ZN3mde4help10VectorBaseIdLm15EEC2ISt5arrayIdLm15EEvEEiRKd
FN:69,_ZN3mde4help10VectorBaseIdLm9EEC2ISt5arrayIdLm9EEvEEiRKd
FN:69,_ZN3mde4help10VectorBaseIdLm7EEC2ISt5arrayIdLm7EEvEEiRKd
FN:69,_ZN3mde4help10VectorBaseIdLm22EEC2ISt5arrayIdLm22EEvEEiRKd
FN:69,_ZN3mde4help10VectorBaseIdLm4EEC2ISt5arrayIdLm4EEvEEiRKd
FN:69,_ZN3mde4help10VectorBaseIdLm6EEC2ISt5arrayIdLm6EEvEEiRKd
FN:69,_ZN3mde4help10VectorBaseIdLm2EEC2ISt5arrayIdLm2EEvEEiRKd
FN:83,_ZN3mde4help6VectorILm0EEC2ERKS2_
FN:83,_ZN3mde4help6VectorILm8EEC2Ev
FN:83,_ZN3mde4help6VectorILm24EEC2Ev
FN:83,_ZN3mde4help6VectorILm0EEaSEOS2_
FN:83,_ZN3mde4help6VectorILm9EEC2Ev
FN:83,_ZN3mde4help6VectorILm20EEC2Ev
FN:83,_ZN3mde4help6VectorILm6EEC2Ev
FN:83,_ZN3mde4help6VectorILm5EEC2Ev
FN:83,_ZN3mde4help6VectorILm13EEC2Ev
FN:83,_ZN3mde4help6VectorILm7EEC2Ev
FN:83,_ZN3mde4help6VectorILm4EEC2Ev
FN:83,_ZN3mde4help6VectorILm10EEC2Ev
FN:83,_ZN3mde4help6VectorILm3EEC2Ev
FN:83,_ZN3mde4help6VectorILm0EEaSERKS2_
FN:83,_ZN3mde4help6VectorILm2EEC2Ev
FN:83,_ZN3mde4help6VectorILm0EED2Ev
FN:83,_ZN3mde4help6VectorILm0EEC2EOS2_
FN:83,_ZN3mde4help6VectorILm15EEC2Ev
FN:83,_ZN3mde4help6VectorILm0EEC2Ev
FN:83,_ZN3mde4help6VectorILm22EEC2Ev
FN:86,_ZN3mde4help6VectorILm24EEC2ISt5arrayIdLm24EEvEEiRKd
FN:86,_ZN3mde4help6VectorILm4EEC2ISt5arrayIdLm4EEvEEiRKd
FN:86,_ZN3mde4help6VectorILm2EEC2ISt5arrayIdLm2EEvEEi
FN:86,_ZN3mde4help6VectorILm9EEC2ISt5arrayIdLm9EEvEEi
FN:86,_ZN3mde4help6VectorILm0EEC2Em
FN:86,_ZN3mde4help6VectorILm7EEC2ISt5arrayIdLm7EEvEEiRKd
FN:86,_ZN3mde4help6VectorILm15EEC2ISt5arrayIdLm15EEvEEiRKd
FN:86,_ZN3mde4help6VectorILm22EEC2ISt5arrayIdLm22EEvEEi
FN:86,_ZN3mde4help6VectorILm5EEC2ISt5arrayIdLm5EEvEEi
FN:86,_ZN3mde4help6VectorILm3EEC2ISt5arrayIdLm3EEvEEi
FN:86,_ZN3mde4help6VectorILm5EEC2ISt5arrayIdLm5EEvEEiRKd
FN:86,_ZN3mde4help6VectorILm10EEC2ISt5arrayIdLm10EEvEEiRKd
FN:86,_ZN3mde4help6VectorILm6EEC2ISt5arrayIdLm6EEvEEi
FN:86,_ZN3mde4help6VectorILm22EEC2ISt5arrayIdLm22EEvEEiRKd
FN:86,_ZN3mde4help6VectorILm20EEC2ISt5arrayIdLm20EEvEEi
FN:86,_ZN3mde4help6VectorILm0EEC2EmRKd
FN:86,_ZN3mde4help6VectorILm8EEC2ISt5arrayIdLm8EEvEEi
FN:86,_ZN3mde4help6VectorILm5EEC2ISt5arrayIdLm5EEvEESt16initializer_listIdE
FN:86,_ZN3mde4help6VectorILm2EEC2ISt5arrayIdLm2EEvEESt16initializer_listIdE
FN:86,_ZN3mde4help6VectorILm13EEC2ISt5arrayIdLm13EEvEEi
FN:86,_ZN3mde4help6VectorILm10EEC2ISt5arrayIdLm10EEvEEi
FN:86,_ZN3mde4help6VectorILm6EEC2ISt5arrayIdLm6EEvEEiRKd
FN:86,_ZN3mde4help6VectorILm3EEC2ISt5arrayIdLm3EEvEEiRKd
FN:86,_ZN3mde4help6VectorILm24EEC2ISt5arrayIdLm24EEvEEi
FN:86,_ZN3mde4help6VectorILm9EEC2ISt5arrayIdLm9EEvEEiRKd
FN:86,_ZN3mde4help6VectorILm2EEC2ISt5arrayIdLm2EEvEEiRKd
FN:86,_ZN3mde4help6VectorILm8EEC2ISt5arrayIdLm8EEvEEiRKd
FN:86,_ZN3mde4help6VectorILm7EEC2ISt5arrayIdLm7EEvEEi
FN:86,_ZN3mde4help6VectorILm13EEC2ISt5arrayIdLm13EEvEEiRKd
FN:86,_ZN3mde4help6VectorILm4EEC2ISt5arrayIdLm4EEvEEi
FN:86,_ZN3mde4help6VectorILm15EEC2ISt5arrayIdLm15EEvEEi
FN:86,_ZN3mde4help6VectorILm20EEC2ISt5arrayIdLm20EEvEEiRKd
FN:90,_ZNK3mde4help6VectorILm0EE8feasibleEv
FN:90,_ZNK3mde4help6VectorILm22EE8feasibleEv
FN:90,_ZNK3mde4help6VectorILm5EE8feasibleEv
FN:90,_ZNK3mde4help6VectorILm24EE8feasibleEv
FN:90,_ZNK3mde4help6VectorILm6EE8feasibleEv
FN:90,_ZNK3mde4help6VectorILm2EE8feasibleEv
FN:90,_ZNK3mde4help6VectorILm15EE8feasibleEv
FN:90,_ZNK3mde4help6VectorILm20EE8feasibleEv
FN:90,_ZNK3mde4help6VectorILm13EE8feasibleEv
FN:90,_ZNK3mde4help6VectorILm10EE8feasibleEv
FN:90,_ZNK3mde4help6VectorILm4EE8feasibleEv
FN:90,_ZNK3mde4help6VectorILm9EE8feasibleEv
FN:90,_ZNK3mde4help6VectorILm8EE8feasibleEv
FN:90,_ZNK3mde4help6VectorILm7EE8feasibleEv
FN:90,_ZNK3mde4help6VectorILm3EE8feasibleEv
FN:99,_ZNK3mde4help6VectorILm22EEltERKS2_
FN:99,_ZNK3mde4help6VectorILm3EEltERKS2_
FN:99,_ZNK3mde4help6VectorILm15EEltERKS2_
FN:99,_ZNK3mde4help6VectorILm20EEltERKS2_
FN:99,_ZNK3mde4help6VectorILm13EEltERKS2_
FN:99,_ZNK3mde4help6VectorILm2EEltERKS2_
FN:99,_ZNK3mde4help6VectorILm24EEltERKS2_
FN:99,_ZNK3mde4help6VectorILm7EEltERKS2_
FN:99,_ZNK3mde4help6VectorILm6EEltERKS2_
FN:99,_ZNK3mde4help6VectorILm9EEltERKS2_
FN:99,_ZNK3mde4help6VectorILm8EEltERKS2_
FN:99,_ZNK3mde4help6VectorILm10EEltERKS2_
FN:99,_ZNK3mde4help6VectorILm0EEltERKS2_
FN:99,_ZNK3mde4help6VectorILm5EEltERKS2_
FN:99,_ZNK3mde4help6VectorILm4EEltERKS2_
FNDA:190314,_ZN3mde4help6VectorILm6EEC2ISt5arrayIdLm6EEvEEi
FNDA:3004970,_ZNK3mde4help6VectorILm0EEltERKS2_
FNDA:12184,_ZN3mde4help10VectorBaseIdLm3EEC2ISt5arrayIdLm3EEvEEiRKd
FNDA:2,_ZN3mde4help6VectorILm22EEC2ISt5arrayIdLm22EEvEEiRKd
FNDA:2910338,_ZNK3mde4help6VectorILm15EE8feasibleEv
FNDA:31,_ZN3mde4help10VectorBaseIdLm8EEC2Ev
FNDA:665622,_ZN3mde4help10VectorBaseIdLm0EEaSEOS2_
FNDA:599972,_ZN3mde4help6VectorILm20EEC2ISt5arrayIdLm20EEvEEi
FNDA:124,_ZN3mde4help10VectorBaseIdLm2EEC2Ev
FNDA:2796902,_ZNK3mde4help6VectorILm20EE8feasibleEv
FNDA:599972,_ZN3mde4help10VectorBaseIdLm15EEC2ISt5arrayIdLm15EEvEEiRKd
FNDA:1074430,_ZNK3mde4help6VectorILm5EEltERKS2_
FNDA:62,_ZN3mde4help6VectorILm7EEC2Ev
FNDA:12,_ZN3mde4help6VectorILm0EEC2EmRKd
FNDA:382870,_ZN3mde4help10VectorBaseIdLm9EEC2ISt5arrayIdLm9EEvEEiRKd
FNDA:93,_ZN3mde4help10VectorBaseIdLm5EEC2Ev
FNDA:2,_ZN3mde4help6VectorILm2EEC2ISt5arrayIdLm2EEvEESt16initializer_listIdE
FNDA:2,_ZN3mde4help6VectorILm5EEC2ISt5arrayIdLm5EEvEESt16initializer_listIdE
FNDA:181662,_ZN3mde4help6VectorILm8EEC2ISt5arrayIdLm8EEvEEi
FNDA:4578971,_ZNK3mde4help6VectorILm10EE8feasibleEv
FNDA:101467,_ZNK3mde4help6VectorILm13EE8feasibleEv
FNDA:611902,_ZN3mde4help10VectorBaseIdLm7EEC2ISt5arrayIdLm7EEvEEiRKd
FNDA:89763,_ZNK3mde4help6VectorILm4EE8feasibleEv
FNDA:93,_ZN3mde4help6VectorILm10EEC2Ev
FNDA:20834,_ZN3mde4help10VectorBaseIdLm22EEC2ISt5arrayIdLm22EEvEEiRKd
FNDA:31,_ZN3mde4help6VectorILm4EEC2Ev
FNDA:887280,_ZN3mde4help6VectorILm10EEC2ISt5arrayIdLm10EEvEEi
FNDA:14780,_ZN3mde4help10VectorBaseIdLm4EEC2ISt5arrayIdLm4EEvEEiRKd
FNDA:2070528,_ZN3mde4help6VectorILm0EEaSERKS2_
FNDA:19332,_ZN3mde4help6VectorILm13EEC2ISt5arrayIdLm13EEvEEi
FNDA:62,_ZN3mde4help6VectorILm3EEC2Ev
FNDA:2113768,_ZNK3mde4help6VectorILm9EE8feasibleEv
FNDA:31,_ZN3mde4help10VectorBaseIdLm20EEC2Ev
FNDA:0,_ZN3mde4help6VectorILm3EEC2ISt5arrayIdLm3EEvEEiRKd
FNDA:124,_ZN3mde4help6VectorILm2EEC2Ev
FNDA:2,_ZN3mde4help6VectorILm6EEC2ISt5arrayIdLm6EEvEEiRKd
FNDA:29432,_ZNK3mde4help6VectorILm4EEltERKS2_
FNDA:599972,_ZN3mde4help6VectorILm24EEC2ISt5arrayIdLm24EEvEEi
FNDA:9,_ZN3mde4help10VectorBaseIdLm0EEC2ERKS2_
FNDA:1025845,_ZNK3mde4help6VectorILm8EE8feasibleEv
FNDA:4,_ZN3mde4help6VectorILm2EEC2ISt5arrayIdLm2EEvEEiRKd
FNDA:2244841,_ZN3mde4help6VectorILm0EED2Ev
FNDA:4,_ZN3mde4help6VectorILm9EEC2ISt5arrayIdLm9EEvEEiRKd
FNDA:31,_ZN3mde4help10VectorBaseIdLm6EEC2Ev
FNDA:2,_ZN3mde4help6VectorILm13EEC2ISt5arrayIdLm13EEvEEiRKd
FNDA:3177669,_ZNK3mde4help6VectorILm7EE8feasibleEv
FNDA:611900,_ZN3mde4help6VectorILm7EEC2ISt5arrayIdLm7EEvEEi
FNDA:2,_ZN3mde4help6VectorILm8EEC2ISt5arrayIdLm8EEvEEiRKd
FNDA:31,_ZN3mde4help10VectorBaseIdLm22EEC2Ev
FNDA:443951,_ZN3mde4help6VectorILm0EEC2EOS2_
FNDA:31,_ZN3mde4help6VectorILm15EEC2Ev
FNDA:14778,_ZN3mde4help6VectorILm4EEC2ISt5arrayIdLm4EEvEEi
FNDA:71930,_ZNK3mde4help6VectorILm3EE8feasibleEv
FNDA:2070528,_ZN3mde4help10VectorBaseIdLm0EEaSERKS2_
FNDA:31,_ZN3mde4help6VectorILm22EEC2Ev
FNDA:93,_ZN3mde4help10VectorBaseIdLm0EEC2Ev
FNDA:599972,_ZN3mde4help6VectorILm15EEC2ISt5arrayIdLm15EEvEEi
FNDA:93,_ZN3mde4help6VectorILm0EEC2Ev
FNDA:22010,_ZN3mde4help10VectorBaseIdLm2EEC2ISt5arrayIdLm2EEvEEiRKd
FNDA:31,_ZN3mde4help10VectorBaseIdLm4EEC2Ev
FNDA:190316,_ZN3mde4help10VectorBaseIdLm6EEC2ISt5arrayIdLm6EEvEEiRKd
FNDA:0,_ZN3mde4help6VectorILm20EEC2ISt5arrayIdLm20EEvEEiRKd
FNDA:62,_ZN3mde4help10VectorBaseIdLm7EEC2Ev
FNDA:31,_ZN3mde4help10VectorBaseIdLm24EEC2Ev
FNDA:181664,_ZN3mde4help10VectorBaseIdLm8EEC2ISt5arrayIdLm8EEvEEiRKd
FNDA:599972,_ZN3mde4help10VectorBaseIdLm20EEC2ISt5arrayIdLm20EEvEEiRKd
FNDA:618822,_ZN3mde4help10VectorBaseIdLm5EEC2ISt5arrayIdLm5EEvEEiRKd
FNDA:40678,_ZNK3mde4help6VectorILm22EEltERKS2_
FNDA:12,_ZN3mde4help10VectorBaseIdLm0EEC2EmRKd
FNDA:62,_ZN3mde4help10VectorBaseIdLm3EEC2Ev
FNDA:24344,_ZNK3mde4help6VectorILm3EEltERKS2_
FNDA:6887758,_ZNK3mde4help6VectorILm0EE8feasibleEv
FNDA:31,_ZN3mde4help6VectorILm24EEC2Ev
FNDA:1103866,_ZNK3mde4help6VectorILm15EEltERKS2_
FNDA:31,_ZN3mde4help6VectorILm8EEC2Ev
FNDA:9,_ZN3mde4help6VectorILm0EEC2ERKS2_
FNDA:31,_ZN3mde4help10VectorBaseIdLm13EEC2Ev
FNDA:1172638,_ZNK3mde4help6VectorILm20EEltERKS2_
FNDA:0,_ZN3mde4help6VectorILm24EEC2ISt5arrayIdLm24EEvEEiRKd
FNDA:44246,_ZNK3mde4help6VectorILm2EEltERKS2_
FNDA:62,_ZN3mde4help10VectorBaseIdLm9EEC2Ev
FNDA:665622,_ZN3mde4help6VectorILm0EEaSEOS2_
FNDA:2,_ZN3mde4help6VectorILm4EEC2ISt5arrayIdLm4EEvEEiRKd
FNDA:39576,_ZNK3mde4help6VectorILm13EEltERKS2_
FNDA:382866,_ZN3mde4help6VectorILm9EEC2ISt5arrayIdLm9EEvEEi
FNDA:22006,_ZN3mde4help6VectorILm2EEC2ISt5arrayIdLm2EEvEEi
FNDA:31,_ZN3mde4help6VectorILm20EEC2Ev
FNDA:62,_ZN3mde4help6VectorILm9EEC2Ev
FNDA:1214156,_ZNK3mde4help6VectorILm24EEltERKS2_
FNDA:19334,_ZN3mde4help10VectorBaseIdLm13EEC2ISt5arrayIdLm13EEvEEiRKd
FNDA:125617,_ZNK3mde4help6VectorILm22EE8feasibleEv
FNDA:1800776,_ZN3mde4help6VectorILm0EEC2Em
FNDA:394131,_ZNK3mde4help6VectorILm6EEltERKS2_
FNDA:887280,_ZN3mde4help10VectorBaseIdLm10EEC2ISt5arrayIdLm10EEvEEiRKd
FNDA:2903796,_ZNK3mde4help6VectorILm5EE8feasibleEv
FNDA:1089916,_ZNK3mde4help6VectorILm7EEltERKS2_
FNDA:443951,_ZN3mde4help10VectorBaseIdLm0EEC2EOS2_
FNDA:31,_ZN3mde4help10VectorBaseIdLm15EEC2Ev
FNDA:2,_ZN3mde4help10VectorBaseIdLm5EEC2ISt5arrayIdLm5EEvEESt16initializer_listIdE
FNDA:93,_ZN3mde4help10VectorBaseIdLm10EEC2Ev
FNDA:2,_ZN3mde4help6VectorILm7EEC2ISt5arrayIdLm7EEvEEiRKd
FNDA:1035976,_ZNK3mde4help6VectorILm6EE8feasibleEv
FNDA:773264,_ZNK3mde4help6VectorILm9EEltERKS2_
FNDA:3745792,_ZNK3mde4help6VectorILm24EE8feasibleEv
FNDA:2,_ZN3mde4help10VectorBaseIdLm2EEC2ISt5arrayIdLm2EEvEESt16initializer_listIdE
FNDA:20832,_ZN3mde4help6VectorILm22EEC2ISt5arrayIdLm22EEvEEi
FNDA:1800776,_ZN3mde4help10VectorBaseIdLm0EEC2Em
FNDA:127118,_ZNK3mde4help6VectorILm2EE8feasibleEv
FNDA:0,_ZN3mde4help6VectorILm15EEC2ISt5arrayIdLm15EEvEEiRKd
FNDA:352237,_ZNK3mde4help6VectorILm8EEltERKS2_
FNDA:618816,_ZN3mde4help6VectorILm5EEC2ISt5arrayIdLm5EEvEEi
FNDA:599972,_ZN3mde4help10VectorBaseIdLm24EEC2ISt5arrayIdLm24EEvEEiRKd
FNDA:0,_ZN3mde4help6VectorILm10EEC2ISt5arrayIdLm10EEvEEiRKd
FNDA:6,_ZN3mde4help6VectorILm5EEC2ISt5arrayIdLm5EEvEEiRKd
FNDA:1772371,_ZNK3mde4help6VectorILm10EEltERKS2_
FNDA:12184,_ZN3mde4help6VectorILm3EEC2ISt5arrayIdLm3EEvEEi
FNDA:31,_ZN3mde4help6VectorILm13EEC2Ev
FNDA:93,_ZN3mde4help6VectorILm5EEC2Ev
FNDA:31,_ZN3mde4help6VectorILm6EEC2Ev
FNDA:2244841,_ZN3mde4help10VectorBaseIdLm0EED2Ev
FNF:120
FNH:115
DA:45,5424951
DA:49,1800788
DA:58,837
DA:62,4
DA:63,4
DA:64,4
DA:65,4
DA:69,4761912
DA:70,4761912
DA:71,4761912
DA:72,4761912
DA:83,5425788
DA:86,6562704
DA:90,31692710
DA:99,12130255
DA:101,12130255
DA:102,5828020
DA:104,6302235
DA:105,826364
DA:107,5475871
DA:108,1356871
DA:110,4119000
LF:22
LH:22
end_of_record
TN:
SF:/home/matheus/Algoritmos/MDE/test/MDETest.cpp
FN:34,_ZN12_GLOBAL__N_17MDETestC2Ev
FN:36,_ZN12_GLOBAL__N_17MDETestD2Ev
FN:39,_ZN12_GLOBAL__N_17MDETest5SetUpEv
FN:54,_ZN12_GLOBAL__N_17MDETest8TearDownEv
FN:58,_ZN12_GLOBAL__N_17MDETest8checkNanIN3mde4help6VectorILm22EEEEEvRKT_
FN:58,_ZN12_GLOBAL__N_17MDETest8checkNanIN3mde4help6VectorILm2EEEEEvRKT_
FN:58,_ZN12_GLOBAL__N_17MDETest8checkNanIN3mde4help6VectorILm0EEEEEvRKT_
FN:58,_ZN12_GLOBAL__N_17MDETest8checkNanIN3mde4help6VectorILm24EEEEEvRKT_
FN:58,_ZN12_GLOBAL__N_17MDETest8checkNanIN3mde4help6VectorILm8EEEEEvRKT_
FN:58,_ZN12_GLOBAL__N_17MDETest8checkNanIN3mde4help6VectorILm6EEEEEvRKT_
FN:58,_ZN12_GLOBAL__N_17MDETest8checkNanIN3mde4help6VectorILm4EEEEEvRKT_
FN:58,_ZN12_GLOBAL__N_17MDETest8checkNanIN3mde4help6VectorILm5EEEEEvRKT_
FN:58,_ZN12_GLOBAL__N_17MDETest8checkNanIN3mde4help6VectorILm15EEEEEvRKT_
FN:58,_ZN12_GLOBAL__N_17MDETest8checkNanIN3mde4help6VectorILm13EEEEEvRKT_
FN:58,_ZN12_GLOBAL__N_17MDETest8checkNanIN3mde4help6VectorILm3EEEEEvRKT_
FN:58,_ZN12_GLOBAL__N_17MDETest8checkNanIN3mde4help6VectorILm10EEEEEvRKT_
FN:58,_ZN12_GLOBAL__N_17MDETest8checkNanIN3mde4help6VectorILm9EEEEEvRKT_
FN:58,_ZN12_GLOBAL__N_17MDETest8checkNanIN3mde4help6VectorILm20EEEEEvRKT_
FN:58,_ZN12_GLOBAL__N_17MDETest8checkNanIN3mde4help6VectorILm7EEEEEvRKT_
FN:69,_ZN12_GLOBAL__N_17MDETest8checkInfIN3mde4help6VectorILm4EEEEEvRKT_
FN:69,_ZN12_GLOBAL__N_17MDETest8checkInfIN3mde4help6VectorILm8EEEEEvRKT_
FN:69,_ZN12_GLOBAL__N_17MDETest8checkInfIN3mde4help6VectorILm5EEEEEvRKT_
FN:69,_ZN12_GLOBAL__N_17MDETest8checkInfIN3mde4help6VectorILm9EEEEEvRKT_
FN:69,_ZN12_GLOBAL__N_17MDETest8checkInfIN3mde4help6VectorILm6EEEEEvRKT_
FN:69,_ZN12_GLOBAL__N_17MDETest8checkInfIN3mde4help6VectorILm15EEEEEvRKT_
FN:69,_ZN12_GLOBAL__N_17MDETest8checkInfIN3mde4help6VectorILm0EEEEEvRKT_
FN:69,_ZN12_GLOBAL__N_17MDETest8checkInfIN3mde4help6VectorILm7EEEEEvRKT_
FN:69,_ZN12_GLOBAL__N_17MDETest8checkInfIN3mde4help6VectorILm22EEEEEvRKT_
FN:69,_ZN12_GLOBAL__N_17MDETest8checkInfIN3mde4help6VectorILm3EEEEEvRKT_
FN:69,_ZN12_GLOBAL__N_17MDETest8checkInfIN3mde4help6VectorILm24EEEEEvRKT_
FN:69,_ZN12_GLOBAL__N_17MDETest8checkInfIN3mde4help6VectorILm20EEEEEvRKT_
FN:69,_ZN12_GLOBAL__N_17MDETest8checkInfIN3mde4help6VectorILm2EEEEEvRKT_
FN:69,_ZN12_GLOBAL__N_17MDETest8checkInfIN3mde4help6VectorILm13EEEEEvRKT_
FN:69,_ZN12_GLOBAL__N_17MDETest8checkInfIN3mde4help6VectorILm10EEEEEvRKT_
FN:80,_ZN12_GLOBAL__N_17MDETest11checkBoundsIN3mde4help6VectorILm8EEEEEvRKT_S8_S8_
FN:80,_ZN12_GLOBAL__N_17MDETest11checkBoundsIN3mde4help6VectorILm3EEEEEvRKT_S8_S8_
FN:80,_ZN12_GLOBAL__N_17MDETest11checkBoundsIN3mde4help6VectorILm13EEEEEvRKT_S8_S8_
FN:80,_ZN12_GLOBAL__N_17MDETest11checkBoundsIN3mde4help6VectorILm15EEEEEvRKT_S8_S8_
FN:80,_ZN12_GLOBAL__N_17MDETest11checkBoundsIN3mde4help6VectorILm2EEEEEvRKT_S8_S8_
FN:80,_ZN12_GLOBAL__N_17MDETest11checkBoundsIN3mde4help6VectorILm10EEEEEvRKT_S8_S8_
FN:80,_ZN12_GLOBAL__N_17MDETest11checkBoundsIN3mde4help6VectorILm5EEEEEvRKT_S8_S8_
FN:80,_ZN12_GLOBAL__N_17MDETest11checkBoundsIN3mde4help6VectorILm20EEEEEvRKT_S8_S8_
FN:80,_ZN12_GLOBAL__N_17MDETest11checkBoundsIN3mde4help6VectorILm0EEEEEvRKT_S8_S8_
FN:80,_ZN12_GLOBAL__N_17MDETest11checkBoundsIN3mde4help6VectorILm9EEEEEvRKT_S8_S8_
FN:80,_ZN12_GLOBAL__N_17MDETest11checkBoundsIN3mde4help6VectorILm24EEEEEvRKT_S8_S8_
FN:80,_ZN12_GLOBAL__N_17MDETest11checkBoundsIN3mde4help6VectorILm22EEEEEvRKT_S8_S8_
FN:80,_ZN12_GLOBAL__N_17MDETest11checkBoundsIN3mde4help6VectorILm6EEEEEvRKT_S8_S8_
FN:80,_ZN12_GLOBAL__N_17MDETest11checkBoundsIN3mde4help6VectorILm7EEEEEvRKT_S8_S8_
FN:80,_ZN12_GLOBAL__N_17MDETest11checkBoundsIN3mde4help6VectorILm4EEEEEvRKT_S8_S8_
FN:91,_ZN12_GLOBAL__N_17MDETest5checkIN3mde4help6VectorILm10EEEEEvRKT_S8_S8_
FN:91,_ZN12_GLOBAL__N_17MDETest5checkIN3mde4help6VectorILm3EEEEEvRKT_S8_S8_
FN:91,_ZN12_GLOBAL__N_17MDETest5checkIN3mde4help6VectorILm7EEEEEvRKT_S8_S8_
FN:91,_ZN12_GLOBAL__N_17MDETest5checkIN3mde4help6VectorILm15EEEEEvRKT_S8_S8_
FN:91,_ZN12_GLOBAL__N_17MDETest5checkIN3mde4help6VectorILm13EEEEEvRKT_S8_S8_
FN:91,_ZN12_GLOBAL__N_17MDETest5checkIN3mde4help6VectorILm24EEEEEvRKT_S8_S8_
FN:91,_ZN12_GLOBAL__N_17MDETest5checkIN3mde4help6VectorILm5EEEEEvRKT_S8_S8_
FN:91,_ZN12_GLOBAL__N_17MDETest5checkIN3mde4help6VectorILm20EEEEEvRKT_S8_S8_
FN:91,_ZN12_GLOBAL__N_17MDETest5checkIN3mde4help6VectorILm2EEEEEvRKT_S8_S8_
FN:91,_ZN12_GLOBAL__N_17MDETest5checkIN3mde4help6VectorILm22EEEEEvRKT_S8_S8_
FN:91,_ZN12_GLOBAL__N_17MDETest5checkIN3mde4help6VectorILm6EEEEEvRKT_S8_S8_
FN:91,_ZN12_GLOBAL__N_17MDETest5checkIN3mde4help6VectorILm8EEEEEvRKT_S8_S8_
FN:91,_ZN12_GLOBAL__N_17MDETest5checkIN3mde4help6VectorILm9EEEEEvRKT_S8_S8_
FN:91,_ZN12_GLOBAL__N_17MDETest5checkIN3mde4help6VectorILm0EEEEEvRKT_S8_S8_
FN:91,_ZN12_GLOBAL__N_17MDETest5checkIN3mde4help6VectorILm4EEEEEvRKT_S8_S8_
FN:105,_ZN12_GLOBAL__N_16AckleyD2Ev
FN:105,_ZN12_GLOBAL__N_16AckleyC2ERKS0_
FN:107,_ZN12_GLOBAL__N_16AckleyC2Ei
FN:114,_ZNK12_GLOBAL__N_16AckleyclERKSt6vectorIdSaIdEE
FN:116,_ZZNK12_GLOBAL__N_16AckleyclERKSt6vectorIdSaIdEEENKUlddE_clEdd
FN:117,_ZZNK12_GLOBAL__N_16AckleyclERKSt6vectorIdSaIdEEENKUlddE0_clEdd
FN:127,_ZN12_GLOBAL__N_110RosenbrockC2ERKS0_
FN:127,_ZN12_GLOBAL__N_110RosenbrockD2Ev
FN:129,_ZN12_GLOBAL__N_110RosenbrockC2Ei
FN:137,_ZNK12_GLOBAL__N_110RosenbrockclERKN3mde4help6VectorILm0EEE
FN:150,_ZN12_GLOBAL__N_115ConstRosenbrockD2Ev
FN:150,_ZN12_GLOBAL__N_115ConstRosenbrockC2ERKS0_
FN:152,_ZN12_GLOBAL__N_115ConstRosenbrockC2Ev
FN:159,_ZN12_GLOBAL__N_115ConstRosenbrockclERKN3mde4help6VectorILm0EEE
FN:164,_ZN12_GLOBAL__N_115ConstRosenbrock12inequalitiesERKN3mde4help6VectorILm0EEE
FN:174,_ZN12_GLOBAL__N_115MDETest_F1_Test8TestBodyEv
FN:174,_ZN12_GLOBAL__N_115MDETest_F1_TestD2Ev
FN:174,_ZN12_GLOBAL__N_115MDETest_F1_TestC2Ev
FN:174,_ZN12_GLOBAL__N_115MDETest_F1_TestD0Ev
FN:175,_ZN12_GLOBAL__N_115MDETest_F2_Test8TestBodyEv
FN:175,_ZN12_GLOBAL__N_115MDETest_F2_TestC2Ev
FN:175,_ZN12_GLOBAL__N_115MDETest_F2_TestD2Ev
FN:175,_ZN12_GLOBAL__N_115MDETest_F2_TestD0Ev
FN:176,_ZN12_GLOBAL__N_115MDETest_F3_TestC2Ev
FN:176,_ZN12_GLOBAL__N_115MDETest_F3_TestD2Ev
FN:176,_ZN12_GLOBAL__N_115MDETest_F3_Test8TestBodyEv
FN:176,_ZN12_GLOBAL__N_115MDETest_F3_TestD0Ev
FN:177,_ZN12_GLOBAL__N_115MDETest_F4_TestC2Ev
FN:177,_ZN12_GLOBAL__N_115MDETest_F4_TestD2Ev
FN:177,_ZN12_GLOBAL__N_115MDETest_F4_Test8TestBodyEv
FN:177,_ZN12_GLOBAL__N_115MDETest_F4_TestD0Ev
FN:178,_ZN12_GLOBAL__N_115MDETest_F5_TestD0Ev
FN:178,_ZN12_GLOBAL__N_115MDETest_F5_Test8TestBodyEv
FN:178,_ZN12_GLOBAL__N_115MDETest_F5_TestC2Ev
FN:178,_ZN12_GLOBAL__N_115MDETest_F5_TestD2Ev
FN:179,_ZN12_GLOBAL__N_115MDETest_F6_TestD0Ev
FN:179,_ZN12_GLOBAL__N_115MDETest_F6_Test8TestBodyEv
FN:179,_ZN12_GLOBAL__N_115MDETest_F6_TestC2Ev
FN:179,_ZN12_GLOBAL__N_115MDETest_F6_TestD2Ev
FN:180,_ZN12_GLOBAL__N_115MDETest_F7_TestD2Ev
FN:180,_ZN12_GLOBAL__N_115MDETest_F7_Test8TestBodyEv
FN:180,_ZN12_GLOBAL__N_115MDETest_F7_TestC2Ev
FN:180,_ZN12_GLOBAL__N_115MDETest_F7_TestD0Ev
FN:181,_ZN12_GLOBAL__N_115MDETest_F8_Test8TestBodyEv
FN:181,_ZN12_GLOBAL__N_115MDETest_F8_TestC2Ev
FN:181,_ZN12_GLOBAL__N_115MDETest_F8_TestD2Ev
FN:181,_ZN12_GLOBAL__N_115MDETest_F8_TestD0Ev
FN:182,_ZN12_GLOBAL__N_115MDETest_F9_Test8TestBodyEv
FN:182,_ZN12_GLOBAL__N_115MDETest_F9_TestC2Ev
FN:182,_ZN12_GLOBAL__N_115MDETest_F9_TestD2Ev
FN:182,_ZN12_GLOBAL__N_115MDETest_F9_TestD0Ev
FN:183,_ZN12_GLOBAL__N_116MDETest_F10_Test8TestBodyEv
FN:183,_ZN12_GLOBAL__N_116MDETest_F10_TestC2Ev
FN:183,_ZN12_GLOBAL__N_116MDETest_F10_TestD2Ev
FN:183,_ZN12_GLOBAL__N_116MDETest_F10_TestD0Ev
FN:184,_ZN12_GLOBAL__N_116MDETest_F11_TestC2Ev
FN:184,_ZN12_GLOBAL__N_116MDETest_F11_Test8TestBodyEv
FN:184,_ZN12_GLOBAL__N_116MDETest_F11_TestD0Ev
FN:184,_ZN12_GLOBAL__N_116MDETest_F11_TestD2Ev
FN:185,_ZN12_GLOBAL__N_116MDETest_F12_Test8TestBodyEv
FN:185,_ZN12_GLOBAL__N_116MDETest_F12_TestD0Ev
FN:185,_ZN12_GLOBAL__N_116MDETest_F12_TestD2Ev
FN:185,_ZN12_GLOBAL__N_116MDETest_F12_TestC2Ev
FN:186,_ZN12_GLOBAL__N_116MDETest_F13_TestD2Ev
FN:186,_ZN12_GLOBAL__N_116MDETest_F13_Test8TestBodyEv
FN:186,_ZN12_GLOBAL__N_116MDETest_F13_TestD0Ev
FN:186,_ZN12_GLOBAL__N_116MDETest_F13_TestC2Ev
FN:187,_ZN12_GLOBAL__N_116MDETest_F14_TestD0Ev
FN:187,_ZN12_GLOBAL__N_116MDETest_F14_TestD2Ev
FN:187,_ZN12_GLOBAL__N_116MDETest_F14_TestC2Ev
FN:187,_ZN12_GLOBAL__N_116MDETest_F14_Test8TestBodyEv
FN:188,_ZN12_GLOBAL__N_116MDETest_F15_TestC2Ev
FN:188,_ZN12_GLOBAL__N_116MDETest_F15_Test8TestBodyEv
FN:188,_ZN12_GLOBAL__N_116MDETest_F15_TestD2Ev
FN:188,_ZN12_GLOBAL__N_116MDETest_F15_TestD0Ev
FN:189,_ZN12_GLOBAL__N_116MDETest_F16_TestC2Ev
FN:189,_ZN12_GLOBAL__N_116MDETest_F16_Test8TestBodyEv
FN:189,_ZN12_GLOBAL__N_116MDETest_F16_TestD0Ev
FN:189,_ZN12_GLOBAL__N_116MDETest_F16_TestD2Ev
FN:190,_ZN12_GLOBAL__N_116MDETest_F17_TestD2Ev
FN:190,_ZN12_GLOBAL__N_116MDETest_F17_TestC2Ev
FN:190,_ZN12_GLOBAL__N_116MDETest_F17_Test8TestBodyEv
FN:190,_ZN12_GLOBAL__N_116MDETest_F17_TestD0Ev
FN:191,_ZN12_GLOBAL__N_116MDETest_F18_TestC2Ev
FN:191,_ZN12_GLOBAL__N_116MDETest_F18_TestD0Ev
FN:191,_ZN12_GLOBAL__N_116MDETest_F18_TestD2Ev
FN:191,_ZN12_GLOBAL__N_116MDETest_F18_Test8TestBodyEv
FN:192,_ZN12_GLOBAL__N_116MDETest_F19_TestD2Ev
FN:192,_ZN12_GLOBAL__N_116MDETest_F19_TestD0Ev
FN:192,_ZN12_GLOBAL__N_116MDETest_F19_TestC2Ev
FN:192,_ZN12_GLOBAL__N_116MDETest_F19_Test8TestBodyEv
FN:193,_ZN12_GLOBAL__N_116MDETest_F20_TestD2Ev
FN:193,_ZN12_GLOBAL__N_116MDETest_F20_TestD0Ev
FN:193,_ZN12_GLOBAL__N_116MDETest_F20_TestC2Ev
FN:193,_ZN12_GLOBAL__N_116MDETest_F20_Test8TestBodyEv
FN:194,_ZN12_GLOBAL__N_116MDETest_F21_TestD2Ev
FN:194,_ZN12_GLOBAL__N_116MDETest_F21_TestC2Ev
FN:194,_ZN12_GLOBAL__N_116MDETest_F21_TestD0Ev
FN:194,_ZN12_GLOBAL__N_116MDETest_F21_Test8TestBodyEv
FN:195,_ZN12_GLOBAL__N_116MDETest_F22_TestC2Ev
FN:195,_ZN12_GLOBAL__N_116MDETest_F22_TestD0Ev
FN:195,_ZN12_GLOBAL__N_116MDETest_F22_TestD2Ev
FN:195,_ZN12_GLOBAL__N_116MDETest_F22_Test8TestBodyEv
FN:196,_ZN12_GLOBAL__N_116MDETest_F23_TestC2Ev
FN:196,_ZN12_GLOBAL__N_116MDETest_F23_TestD2Ev
FN:196,_ZN12_GLOBAL__N_116MDETest_F23_TestD0Ev
FN:196,_ZN12_GLOBAL__N_116MDETest_F23_Test8TestBodyEv
FN:197,_ZN12_GLOBAL__N_116MDETest_F24_TestD2Ev
FN:197,_ZN12_GLOBAL__N_116MDETest_F24_TestD0Ev
FN:197,_ZN12_GLOBAL__N_116MDETest_F24_TestC2Ev
FN:197,_ZN12_GLOBAL__N_116MDETest_F24_Test8TestBodyEv
FN:202,_ZN12_GLOBAL__N_119MDETest_Ackley_TestD2Ev
FN:202,_ZN12_GLOBAL__N_119MDETest_Ackley_Test8TestBodyEv
FN:202,_ZN12_GLOBAL__N_119MDETest_Ackley_TestD0Ev
FN:202,_ZN12_GLOBAL__N_119MDETest_Ackley_TestC2Ev
FN:214,_ZN12_GLOBAL__N_123MDETest_Rosenbrock_TestC2Ev
FN:214,_ZN12_GLOBAL__N_123MDETest_Rosenbrock_Test8TestBodyEv
FN:214,_ZN12_GLOBAL__N_123MDETest_Rosenbrock_TestD2Ev
FN:214,_ZN12_GLOBAL__N_123MDETest_Rosenbrock_TestD0Ev
FN:226,_ZN12_GLOBAL__N_128MDETest_ConstRosenbrock_TestC2Ev
FN:226,_ZN12_GLOBAL__N_128MDETest_ConstRosenbrock_TestD0Ev
FN:226,_ZN12_GLOBAL__N_128MDETest_ConstRosenbrock_Test8TestBodyEv
FN:226,_ZN12_GLOBAL__N_128MDETest_ConstRosenbrock_TestD2Ev
FN:240,_Z41__static_initialization_and_destruction_0ii
FN:240,_GLOBAL__sub_I_MDETest.cpp
FNDA:1,_ZN12_GLOBAL__N_16AckleyC2Ei
FNDA:1,_ZN12_GLOBAL__N_17MDETest8checkInfIN3mde4help6VectorILm13EEEEEvRKT_
FNDA:27,_ZN12_GLOBAL__N_17MDETestC2Ev
FNDA:4,_ZN12_GLOBAL__N_17MDETest8checkInfIN3mde4help6VectorILm2EEEEEvRKT_
FNDA:1,_ZN12_GLOBAL__N_116MDETest_F16_TestD2Ev
FNDA:1,_ZN12_GLOBAL__N_115MDETest_F6_TestD2Ev
FNDA:1,_ZN12_GLOBAL__N_116MDETest_F17_TestD0Ev
FNDA:1,_ZN12_GLOBAL__N_128MDETest_ConstRosenbrock_TestD2Ev
FNDA:1,_ZN12_GLOBAL__N_17MDETest5checkIN3mde4help6VectorILm4EEEEEvRKT_S8_S8_
FNDA:499980,_ZNK12_GLOBAL__N_110RosenbrockclERKN3mde4help6VectorILm0EEE
FNDA:1,_ZN12_GLOBAL__N_17MDETest8checkNanIN3mde4help6VectorILm20EEEEEvRKT_
FNDA:1,_ZN12_GLOBAL__N_16AckleyC2ERKS0_
FNDA:1,_ZN12_GLOBAL__N_116MDETest_F13_TestC2Ev
FNDA:1,_ZN12_GLOBAL__N_116MDETest_F10_TestD0Ev
FNDA:1,_ZN12_GLOBAL__N_17MDETest11checkBoundsIN3mde4help6VectorILm4EEEEEvRKT_S8_S8_
FNDA:2,_ZN12_GLOBAL__N_17MDETest11checkBoundsIN3mde4help6VectorILm7EEEEEvRKT_S8_S8_
FNDA:2,_ZN12_GLOBAL__N_110RosenbrockD2Ev
FNDA:1,_ZN12_GLOBAL__N_116MDETest_F12_TestC2Ev
FNDA:1,_ZN12_GLOBAL__N_115MDETest_F1_TestD0Ev
FNDA:2,_ZN12_GLOBAL__N_17MDETest8checkNanIN3mde4help6VectorILm7EEEEEvRKT_
FNDA:1,_ZN12_GLOBAL__N_115ConstRosenbrockC2ERKS0_
FNDA:1,_ZN12_GLOBAL__N_115ConstRosenbrockC2Ev
FNDA:3,_ZN12_GLOBAL__N_17MDETest8checkInfIN3mde4help6VectorILm10EEEEEvRKT_
FNDA:1,_ZN12_GLOBAL__N_116MDETest_F13_TestD0Ev
FNDA:1,_ZN12_GLOBAL__N_116MDETest_F17_Test8TestBodyEv
FNDA:1,_ZN12_GLOBAL__N_116MDETest_F16_TestD0Ev
FNDA:1,_ZN12_GLOBAL__N_116MDETest_F18_Test8TestBodyEv
FNDA:1,_ZN12_GLOBAL__N_115MDETest_F6_Test8TestBodyEv
FNDA:1,_ZN12_GLOBAL__N_115MDETest_F6_TestC2Ev
FNDA:1,_ZN12_GLOBAL__N_116MDETest_F11_Test8TestBodyEv
FNDA:1,_ZN12_GLOBAL__N_116MDETest_F20_Test8TestBodyEv
FNDA:1,_ZN12_GLOBAL__N_115MDETest_F2_TestD0Ev
FNDA:1,_ZN12_GLOBAL__N_116MDETest_F10_TestD2Ev
FNDA:1,_ZN12_GLOBAL__N_115MDETest_F5_TestD2Ev
FNDA:1,_ZN12_GLOBAL__N_115MDETest_F3_Test8TestBodyEv
FNDA:1,_ZN12_GLOBAL__N_116MDETest_F11_TestD0Ev
FNDA:1,_ZN12_GLOBAL__N_115MDETest_F8_TestD0Ev
FNDA:1,_ZN12_GLOBAL__N_116MDETest_F24_Test8TestBodyEv
FNDA:1,_ZN12_GLOBAL__N_116MDETest_F19_Test8TestBodyEv
FNDA:1,_ZN12_GLOBAL__N_128MDETest_ConstRosenbrock_TestD0Ev
FNDA:1,_ZN12_GLOBAL__N_116MDETest_F23_Test8TestBodyEv
FNDA:3,_ZN12_GLOBAL__N_17MDETest5checkIN3mde4help6VectorILm0EEEEEvRKT_S8_S8_
FNDA:1,_ZN12_GLOBAL__N_17MDETest8checkInfIN3mde4help6VectorILm20EEEEEvRKT_
FNDA:1,_ZN12_GLOBAL__N_115MDETest_F3_TestD0Ev
FNDA:1,_ZN12_GLOBAL__N_115MDETest_F4_TestD0Ev
FNDA:2,_ZN12_GLOBAL__N_17MDETest8checkNanIN3mde4help6VectorILm9EEEEEvRKT_
FNDA:1,_ZN12_GLOBAL__N_128MDETest_ConstRosenbrock_Test8TestBodyEv
FNDA:1,_ZN12_GLOBAL__N_116MDETest_F11_TestD2Ev
FNDA:499980,_ZN12_GLOBAL__N_115ConstRosenbrockclERKN3mde4help6VectorILm0EEE
FNDA:1,_ZN12_GLOBAL__N_116MDETest_F12_TestD2Ev
FNDA:1,_ZN12_GLOBAL__N_116MDETest_F15_TestD2Ev
FNDA:1,_ZN12_GLOBAL__N_116MDETest_F16_Test8TestBodyEv
FNDA:1,_ZN12_GLOBAL__N_116MDETest_F21_Test8TestBodyEv
FNDA:1,_ZN12_GLOBAL__N_116MDETest_F19_TestC2Ev
FNDA:1,_ZN12_GLOBAL__N_115MDETest_F6_TestD0Ev
FNDA:2,_ZN12_GLOBAL__N_17MDETest8checkInfIN3mde4help6VectorILm3EEEEEvRKT_
FNDA:1,_ZN12_GLOBAL__N_17MDETest11checkBoundsIN3mde4help6VectorILm6EEEEEvRKT_S8_S8_
FNDA:2,_ZN12_GLOBAL__N_17MDETest5checkIN3mde4help6VectorILm9EEEEEvRKT_S8_S8_
FNDA:1,_ZN12_GLOBAL__N_17MDETest8checkInfIN3mde4help6VectorILm24EEEEEvRKT_
FNDA:1,_ZN12_GLOBAL__N_116MDETest_F15_TestD0Ev
FNDA:1,_ZN12_GLOBAL__N_116MDETest_F10_TestC2Ev
FNDA:1,_ZN12_GLOBAL__N_17MDETest5checkIN3mde4help6VectorILm8EEEEEvRKT_S8_S8_
FNDA:1,_ZN12_GLOBAL__N_115MDETest_F7_TestD0Ev
FNDA:1,_ZN12_GLOBAL__N_123MDETest_Rosenbrock_TestD0Ev
FNDA:1,_ZN12_GLOBAL__N_116MDETest_F12_TestD0Ev
FNDA:1,_ZN12_GLOBAL__N_115MDETest_F4_Test8TestBodyEv
FNDA:1,_ZN12_GLOBAL__N_116MDETest_F23_TestD0Ev
FNDA:3,_ZN12_GLOBAL__N_17MDETest8checkNanIN3mde4help6VectorILm10EEEEEvRKT_
FNDA:1,_ZN12_GLOBAL__N_115MDETest_F9_TestD0Ev
FNDA:1,_ZN12_GLOBAL__N_123MDETest_Rosenbrock_TestD2Ev
FNDA:1,_ZN12_GLOBAL__N_17MDETest5checkIN3mde4help6VectorILm6EEEEEvRKT_S8_S8_
FNDA:2,_ZN12_GLOBAL__N_17MDETest8checkNanIN3mde4help6VectorILm3EEEEEvRKT_
FNDA:1,_ZN12_GLOBAL__N_17MDETest11checkBoundsIN3mde4help6VectorILm24EEEEEvRKT_S8_S8_
FNDA:1,_ZN12_GLOBAL__N_116MDETest_F11_TestC2Ev
FNDA:2,_ZN12_GLOBAL__N_17MDETest11checkBoundsIN3mde4help6VectorILm9EEEEEvRKT_S8_S8_
FNDA:499980,_ZN12_GLOBAL__N_115ConstRosenbrock12inequalitiesERKN3mde4help6VectorILm0EEE
FNDA:1,_ZN12_GLOBAL__N_116MDETest_F16_TestC2Ev
FNDA:1,_ZN12_GLOBAL__N_128MDETest_ConstRosenbrock_TestC2Ev
FNDA:1,_ZN12_GLOBAL__N_115MDETest_F8_TestC2Ev
FNDA:1,_ZN12_GLOBAL__N_115MDETest_F3_TestD2Ev
FNDA:1,_ZN12_GLOBAL__N_17MDETest11checkBoundsIN3mde4help6VectorILm22EEEEEvRKT_S8_S8_
FNDA:1,_ZN12_GLOBAL__N_115MDETest_F2_TestC2Ev
FNDA:1,_ZN12_GLOBAL__N_17MDETest8checkInfIN3mde4help6VectorILm22EEEEEvRKT_
FNDA:1,_ZN12_GLOBAL__N_116MDETest_F20_TestC2Ev
FNDA:1,_ZN12_GLOBAL__N_115MDETest_F2_TestD2Ev
FNDA:1,_ZN12_GLOBAL__N_116MDETest_F20_TestD0Ev
FNDA:27,_ZN12_GLOBAL__N_17MDETestD2Ev
FNDA:9999600,_ZZNK12_GLOBAL__N_16AckleyclERKSt6vectorIdSaIdEEENKUlddE0_clEdd
FNDA:1,_ZN12_GLOBAL__N_115MDETest_F8_TestD2Ev
FNDA:1,_ZN12_GLOBAL__N_116MDETest_F19_TestD0Ev
FNDA:3,_ZN12_GLOBAL__N_17MDETest8checkInfIN3mde4help6VectorILm0EEEEEvRKT_
FNDA:3,_ZN12_GLOBAL__N_17MDETest5checkIN3mde4help6VectorILm5EEEEEvRKT_S8_S8_
FNDA:1,_GLOBAL__sub_I_MDETest.cpp
FNDA:1,_ZN12_GLOBAL__N_116MDETest_F13_Test8TestBodyEv
FNDA:1,_ZN12_GLOBAL__N_116MDETest_F18_TestD2Ev
FNDA:1,_ZN12_GLOBAL__N_115MDETest_F7_TestC2Ev
FNDA:1,_ZN12_GLOBAL__N_115MDETest_F4_TestD2Ev
FNDA:3,_ZN12_GLOBAL__N_17MDETest11checkBoundsIN3mde4help6VectorILm0EEEEEvRKT_S8_S8_
FNDA:1,_ZN12_GLOBAL__N_115MDETest_F5_Test8TestBodyEv
FNDA:1,_ZN12_GLOBAL__N_17MDETest5checkIN3mde4help6VectorILm20EEEEEvRKT_S8_S8_
FNDA:1,_ZN12_GLOBAL__N_116MDETest_F23_TestD2Ev
FNDA:1,_ZN12_GLOBAL__N_17MDETest8checkNanIN3mde4help6VectorILm13EEEEEvRKT_
FNDA:1,_ZN12_GLOBAL__N_115MDETest_F1_TestD2Ev
FNDA:1,_ZN12_GLOBAL__N_110RosenbrockC2ERKS0_
FNDA:1,_ZN12_GLOBAL__N_115MDETest_F1_TestC2Ev
FNDA:1,_ZN12_GLOBAL__N_17MDETest8checkNanIN3mde4help6VectorILm15EEEEEvRKT_
FNDA:2,_ZN12_GLOBAL__N_17MDETest8checkInfIN3mde4help6VectorILm7EEEEEvRKT_
FNDA:1,_ZN12_GLOBAL__N_116MDETest_F22_Test8TestBodyEv
FNDA:1,_ZN12_GLOBAL__N_17MDETest5checkIN3mde4help6VectorILm22EEEEEvRKT_S8_S8_
FNDA:4,_ZN12_GLOBAL__N_17MDETest5checkIN3mde4help6VectorILm2EEEEEvRKT_S8_S8_
FNDA:1,_ZN12_GLOBAL__N_116MDETest_F14_Test8TestBodyEv
FNDA:1,_ZN12_GLOBAL__N_119MDETest_Ackley_TestC2Ev
FNDA:1,_ZN12_GLOBAL__N_115MDETest_F5_TestC2Ev
FNDA:1,_ZN12_GLOBAL__N_116MDETest_F23_TestC2Ev
FNDA:1,_ZN12_GLOBAL__N_115MDETest_F3_TestC2Ev
FNDA:1,_ZN12_GLOBAL__N_116MDETest_F14_TestC2Ev
FNDA:1,_ZN12_GLOBAL__N_116MDETest_F22_TestD2Ev
FNDA:1,_ZN12_GLOBAL__N_110RosenbrockC2Ei
FNDA:1,_ZN12_GLOBAL__N_116MDETest_F20_TestD2Ev
FNDA:1,_ZN12_GLOBAL__N_116MDETest_F14_TestD2Ev
FNDA:1,_ZN12_GLOBAL__N_116MDETest_F12_Test8TestBodyEv
FNDA:1,_ZN12_GLOBAL__N_116MDETest_F21_TestD0Ev
FNDA:1,_ZN12_GLOBAL__N_119MDETest_Ackley_Test8TestBodyEv
FNDA:1,_ZN12_GLOBAL__N_17MDETest8checkInfIN3mde4help6VectorILm6EEEEEvRKT_
FNDA:1,_ZN12_GLOBAL__N_17MDETest8checkNanIN3mde4help6VectorILm4EEEEEvRKT_
FNDA:3,_ZN12_GLOBAL__N_17MDETest8checkNanIN3mde4help6VectorILm5EEEEEvRKT_
FNDA:1,_ZN12_GLOBAL__N_17MDETest8checkInfIN3mde4help6VectorILm15EEEEEvRKT_
FNDA:1,_ZN12_GLOBAL__N_17MDETest5checkIN3mde4help6VectorILm13EEEEEvRKT_S8_S8_
FNDA:1,_ZN12_GLOBAL__N_17MDETest5checkIN3mde4help6VectorILm15EEEEEvRKT_S8_S8_
FNDA:1,_ZN12_GLOBAL__N_17MDETest5checkIN3mde4help6VectorILm24EEEEEvRKT_S8_S8_
FNDA:1,_ZN12_GLOBAL__N_115MDETest_F7_Test8TestBodyEv
FNDA:1,_ZN12_GLOBAL__N_119MDETest_Ackley_TestD0Ev
FNDA:1,_ZN12_GLOBAL__N_115MDETest_F8_Test8TestBodyEv
FNDA:1,_ZN12_GLOBAL__N_116MDETest_F24_TestC2Ev
FNDA:3,_ZN12_GLOBAL__N_17MDETest8checkInfIN3mde4help6VectorILm5EEEEEvRKT_
FNDA:9999600,_ZZNK12_GLOBAL__N_16AckleyclERKSt6vectorIdSaIdEEENKUlddE_clEdd
FNDA:4,_ZN12_GLOBAL__N_17MDETest11checkBoundsIN3mde4help6VectorILm2EEEEEvRKT_S8_S8_
FNDA:1,_ZN12_GLOBAL__N_116MDETest_F13_TestD2Ev
FNDA:2,_ZN12_GLOBAL__N_115ConstRosenbrockD2Ev
FNDA:1,_ZN12_GLOBAL__N_17MDETest11checkBoundsIN3mde4help6VectorILm15EEEEEvRKT_S8_S8_
FNDA:1,_ZN12_GLOBAL__N_116MDETest_F17_TestC2Ev
FNDA:27,_ZN12_GLOBAL__N_17MDETest8TearDownEv
FNDA:1,_ZN12_GLOBAL__N_116MDETest_F24_TestD0Ev
FNDA:1,_ZN12_GLOBAL__N_17MDETest8checkNanIN3mde4help6VectorILm24EEEEEvRKT_
FNDA:1,_ZN12_GLOBAL__N_116MDETest_F21_TestC2Ev
FNDA:3,_ZN12_GLOBAL__N_17MDETest11checkBoundsIN3mde4help6VectorILm10EEEEEvRKT_S8_S8_
FNDA:1,_ZN12_GLOBAL__N_115MDETest_F9_TestC2Ev
FNDA:2,_ZN12_GLOBAL__N_17MDETest5checkIN3mde4help6VectorILm7EEEEEvRKT_S8_S8_
FNDA:1,_Z41__static_initialization_and_destruction_0ii
FNDA:1,_ZN12_GLOBAL__N_123MDETest_Rosenbrock_TestC2Ev
FNDA:499980,_ZNK12_GLOBAL__N_16AckleyclERKSt6vectorIdSaIdEE
FNDA:1,_ZN12_GLOBAL__N_115MDETest_F4_TestC2Ev
FNDA:2,_ZN12_GLOBAL__N_17MDETest8checkInfIN3mde4help6VectorILm9EEEEEvRKT_
FNDA:1,_ZN12_GLOBAL__N_17MDETest8checkNanIN3mde4help6VectorILm6EEEEEvRKT_
FNDA:1,_ZN12_GLOBAL__N_116MDETest_F22_TestC2Ev
FNDA:1,_ZN12_GLOBAL__N_115MDETest_F9_TestD2Ev
FNDA:1,_ZN12_GLOBAL__N_123MDETest_Rosenbrock_Test8TestBodyEv
FNDA:3,_ZN12_GLOBAL__N_17MDETest11checkBoundsIN3mde4help6VectorILm5EEEEEvRKT_S8_S8_
FNDA:1,_ZN12_GLOBAL__N_17MDETest8checkNanIN3mde4help6VectorILm8EEEEEvRKT_
FNDA:1,_ZN12_GLOBAL__N_116MDETest_F14_TestD0Ev
FNDA:1,_ZN12_GLOBAL__N_116MDETest_F10_Test8TestBodyEv
FNDA:1,_ZN12_GLOBAL__N_116MDETest_F22_TestD0Ev
FNDA:1,_ZN12_GLOBAL__N_17MDETest11checkBoundsIN3mde4help6VectorILm20EEEEEvRKT_S8_S8_
FNDA:1,_ZN12_GLOBAL__N_116MDETest_F18_TestD0Ev
FNDA:1,_ZN12_GLOBAL__N_116MDETest_F19_TestD2Ev
FNDA:1,_ZN12_GLOBAL__N_115MDETest_F2_Test8TestBodyEv
FNDA:2,_ZN12_GLOBAL__N_16AckleyD2Ev
FNDA:1,_ZN12_GLOBAL__N_116MDETest_F15_TestC2Ev
FNDA:1,_ZN12_GLOBAL__N_119MDETest_Ackley_TestD2Ev
FNDA:1,_ZN12_GLOBAL__N_116MDETest_F18_TestC2Ev
FNDA:4,_ZN12_GLOBAL__N_17MDETest8checkNanIN3mde4help6VectorILm2EEEEEvRKT_
FNDA:2,_ZN12_GLOBAL__N_17MDETest5checkIN3mde4help6VectorILm3EEEEEvRKT_S8_S8_
FNDA:3,_ZN12_GLOBAL__N_17MDETest5checkIN3mde4help6VectorILm10EEEEEvRKT_S8_S8_
FNDA:1,_ZN12_GLOBAL__N_115MDETest_F1_Test8TestBodyEv
FNDA:1,_ZN12_GLOBAL__N_17MDETest8checkNanIN3mde4help6VectorILm22EEEEEvRKT_
FNDA:1,_ZN12_GLOBAL__N_17MDETest11checkBoundsIN3mde4help6VectorILm8EEEEEvRKT_S8_S8_
FNDA:2,_ZN12_GLOBAL__N_17MDETest11checkBoundsIN3mde4help6VectorILm3EEEEEvRKT_S8_S8_
FNDA:27,_ZN12_GLOBAL__N_17MDETest5SetUpEv
FNDA:1,_ZN12_GLOBAL__N_17MDETest8checkInfIN3mde4help6VectorILm8EEEEEvRKT_
FNDA:1,_ZN12_GLOBAL__N_115MDETest_F5_TestD0Ev
FNDA:1,_ZN12_GLOBAL__N_116MDETest_F17_TestD2Ev
FNDA:1,_ZN12_GLOBAL__N_116MDETest_F15_Test8TestBodyEv
FNDA:1,_ZN12_GLOBAL__N_115MDETest_F9_Test8TestBodyEv
FNDA:1,_ZN12_GLOBAL__N_17MDETest8checkInfIN3mde4help6VectorILm4EEEEEvRKT_
FNDA:1,_ZN12_GLOBAL__N_115MDETest_F7_TestD2Ev
FNDA:1,_ZN12_GLOBAL__N_116MDETest_F24_TestD2Ev
FNDA:1,_ZN12_GLOBAL__N_17MDETest11checkBoundsIN3mde4help6VectorILm13EEEEEvRKT_S8_S8_
FNDA:1,_ZN12_GLOBAL__N_116MDETest_F21_TestD2Ev
FNDA:3,_ZN12_GLOBAL__N_17MDETest8checkNanIN3mde4help6VectorILm0EEEEEvRKT_
FNF:189
FNH:189
DA:34,27
DA:36,27
DA:39,27
DA:41,27
DA:42,27
DA:43,27
DA:44,27
DA:45,27
DA:46,27
DA:47,27
DA:48,27
DA:49,27
DA:50,27
DA:51,27
DA:54,27
DA:58,27
DA:60,262
DA:61,235
DA:63,27
DA:64,27
DA:65,27
DA:69,27
DA:71,262
DA:72,235
DA:74,27
DA:75,27
DA:76,27
DA:80,27
DA:82,262
DA:84,235
DA:85,235
DA:87,27
DA:91,27
DA:93,27
DA:94,27
DA:95,27
DA:96,27
DA:105,3
DA:107,1
DA:109,1
DA:110,1
DA:111,1
DA:114,499980
DA:116,10499580
DA:117,10499580
DA:119,499980
DA:127,3
DA:129,1
DA:130,1
DA:131,1
DA:132,1
DA:133,1
DA:134,1
DA:137,499980
DA:139,499980
DA:141,4999800
DA:142,4499820
DA:144,499980
DA:150,3
DA:152,1
DA:153,1
DA:156,1
DA:159,499980
DA:161,499980
DA:164,499980
DA:166,499980
DA:174,5
DA:175,5
DA:176,5
DA:177,5
DA:178,5
DA:179,5
DA:180,5
DA:181,5
DA:182,5
DA:183,5
DA:184,5
DA:185,5
DA:186,5
DA:187,5
DA:188,5
DA:189,5
DA:190,5
DA:191,5
DA:192,5
DA:193,5
DA:194,5
DA:195,5
DA:196,5
DA:197,5
DA:202,5
DA:204,1
DA:206,2
DA:208,2
DA:210,1
DA:211,1
DA:214,5
DA:216,1
DA:218,2
DA:220,2
DA:222,1
DA:223,1
DA:226,5
DA:228,1
DA:230,2
DA:232,2
DA:234,1
DA:235,1
DA:240,3
LF:109
LH:109
end_of_record
